
simu:     file format elf32-littleriscv


Disassembly of section .text:

00010074 <_start>:
   10074:	00013197          	auipc	gp,0x13
   10078:	13418193          	addi	gp,gp,308 # 231a8 <__global_pointer$>
   1007c:	82c18513          	addi	a0,gp,-2004 # 229d4 <_edata>
   10080:	88818613          	addi	a2,gp,-1912 # 22a30 <_end>
   10084:	40a60633          	sub	a2,a2,a0
   10088:	00000593          	li	a1,0
   1008c:	304000ef          	jal	ra,10390 <memset>
   10090:	00000517          	auipc	a0,0x0
   10094:	1ec50513          	addi	a0,a0,492 # 1027c <__libc_fini_array>
   10098:	1a0000ef          	jal	ra,10238 <atexit>
   1009c:	254000ef          	jal	ra,102f0 <__libc_init_array>
   100a0:	00012503          	lw	a0,0(sp)
   100a4:	00410593          	addi	a1,sp,4
   100a8:	00000613          	li	a2,0
   100ac:	120000ef          	jal	ra,101cc <main>
   100b0:	19c0006f          	j	1024c <exit>

000100b4 <_fini>:
   100b4:	00008067          	ret

000100b8 <deregister_tm_clones>:
   100b8:	00023537          	lui	a0,0x23
   100bc:	000237b7          	lui	a5,0x23
   100c0:	9a450713          	addi	a4,a0,-1628 # 229a4 <__TMC_END__>
   100c4:	9a478793          	addi	a5,a5,-1628 # 229a4 <__TMC_END__>
   100c8:	00e78c63          	beq	a5,a4,100e0 <deregister_tm_clones+0x28>
   100cc:	00000337          	lui	t1,0x0
   100d0:	00030313          	mv	t1,t1
   100d4:	00030663          	beqz	t1,100e0 <deregister_tm_clones+0x28>
   100d8:	9a450513          	addi	a0,a0,-1628
   100dc:	00030067          	jr	t1
   100e0:	00008067          	ret

000100e4 <register_tm_clones>:
   100e4:	000237b7          	lui	a5,0x23
   100e8:	00023537          	lui	a0,0x23
   100ec:	9a478593          	addi	a1,a5,-1628 # 229a4 <__TMC_END__>
   100f0:	9a450793          	addi	a5,a0,-1628 # 229a4 <__TMC_END__>
   100f4:	40f585b3          	sub	a1,a1,a5
   100f8:	4025d593          	srai	a1,a1,0x2
   100fc:	00200793          	li	a5,2
   10100:	02f5c5b3          	div	a1,a1,a5
   10104:	00058c63          	beqz	a1,1011c <register_tm_clones+0x38>
   10108:	00000337          	lui	t1,0x0
   1010c:	00030313          	mv	t1,t1
   10110:	00030663          	beqz	t1,1011c <register_tm_clones+0x38>
   10114:	9a450513          	addi	a0,a0,-1628
   10118:	00030067          	jr	t1
   1011c:	00008067          	ret

00010120 <__do_global_dtors_aux>:
   10120:	8401c703          	lbu	a4,-1984(gp) # 229e8 <completed.5176>
   10124:	04071663          	bnez	a4,10170 <__do_global_dtors_aux+0x50>
   10128:	ff010113          	addi	sp,sp,-16
   1012c:	00812423          	sw	s0,8(sp)
   10130:	00112623          	sw	ra,12(sp)
   10134:	00078413          	mv	s0,a5
   10138:	f81ff0ef          	jal	ra,100b8 <deregister_tm_clones>
   1013c:	000007b7          	lui	a5,0x0
   10140:	00078793          	mv	a5,a5
   10144:	00078a63          	beqz	a5,10158 <__do_global_dtors_aux+0x38>
   10148:	00021537          	lui	a0,0x21
   1014c:	59450513          	addi	a0,a0,1428 # 21594 <__EH_FRAME_BEGIN__>
   10150:	ffff0097          	auipc	ra,0xffff0
   10154:	eb0080e7          	jalr	-336(ra) # 0 <_start-0x10074>
   10158:	00100793          	li	a5,1
   1015c:	84f18023          	sb	a5,-1984(gp) # 229e8 <completed.5176>
   10160:	00c12083          	lw	ra,12(sp)
   10164:	00812403          	lw	s0,8(sp)
   10168:	01010113          	addi	sp,sp,16
   1016c:	00008067          	ret
   10170:	00008067          	ret

00010174 <frame_dummy>:
   10174:	000007b7          	lui	a5,0x0
   10178:	00078793          	mv	a5,a5
   1017c:	02078463          	beqz	a5,101a4 <frame_dummy+0x30>
   10180:	00021537          	lui	a0,0x21
   10184:	ff010113          	addi	sp,sp,-16
   10188:	84418593          	addi	a1,gp,-1980 # 229ec <object.5181>
   1018c:	59450513          	addi	a0,a0,1428 # 21594 <__EH_FRAME_BEGIN__>
   10190:	00112623          	sw	ra,12(sp)
   10194:	ffff0097          	auipc	ra,0xffff0
   10198:	e6c080e7          	jalr	-404(ra) # 0 <_start-0x10074>
   1019c:	00c12083          	lw	ra,12(sp)
   101a0:	01010113          	addi	sp,sp,16
   101a4:	f41ff06f          	j	100e4 <register_tm_clones>

000101a8 <addition>:
   101a8:	fe010113          	addi	sp,sp,-32
   101ac:	00812e23          	sw	s0,28(sp)
   101b0:	02010413          	addi	s0,sp,32
   101b4:	fea42623          	sw	a0,-20(s0)
   101b8:	fec42783          	lw	a5,-20(s0)
   101bc:	00078513          	mv	a0,a5
   101c0:	01c12403          	lw	s0,28(sp)
   101c4:	02010113          	addi	sp,sp,32
   101c8:	00008067          	ret

000101cc <main>:
   101cc:	fe010113          	addi	sp,sp,-32
   101d0:	00112e23          	sw	ra,28(sp)
   101d4:	00812c23          	sw	s0,24(sp)
   101d8:	02010413          	addi	s0,sp,32
   101dc:	000217b7          	lui	a5,0x21
   101e0:	87078513          	addi	a0,a5,-1936 # 20870 <__clzsi2+0x50>
   101e4:	3dc000ef          	jal	ra,105c0 <puts>
   101e8:	00a00793          	li	a5,10
   101ec:	fef42623          	sw	a5,-20(s0)
   101f0:	fe042423          	sw	zero,-24(s0)
   101f4:	fe042223          	sw	zero,-28(s0)
   101f8:	fec42503          	lw	a0,-20(s0)
   101fc:	fadff0ef          	jal	ra,101a8 <addition>
   10200:	fea42223          	sw	a0,-28(s0)
   10204:	fe442583          	lw	a1,-28(s0)
   10208:	000217b7          	lui	a5,0x21
   1020c:	89078513          	addi	a0,a5,-1904 # 20890 <__clzsi2+0x70>
   10210:	29c000ef          	jal	ra,104ac <printf>
   10214:	000217b7          	lui	a5,0x21
   10218:	8a078513          	addi	a0,a5,-1888 # 208a0 <__clzsi2+0x80>
   1021c:	3a4000ef          	jal	ra,105c0 <puts>
   10220:	00000793          	li	a5,0
   10224:	00078513          	mv	a0,a5
   10228:	01c12083          	lw	ra,28(sp)
   1022c:	01812403          	lw	s0,24(sp)
   10230:	02010113          	addi	sp,sp,32
   10234:	00008067          	ret

00010238 <atexit>:
   10238:	00050593          	mv	a1,a0
   1023c:	00000693          	li	a3,0
   10240:	00000613          	li	a2,0
   10244:	00000513          	li	a0,0
   10248:	53c0206f          	j	12784 <__register_exitproc>

0001024c <exit>:
   1024c:	ff010113          	addi	sp,sp,-16
   10250:	00000593          	li	a1,0
   10254:	00812423          	sw	s0,8(sp)
   10258:	00112623          	sw	ra,12(sp)
   1025c:	00050413          	mv	s0,a0
   10260:	5a0020ef          	jal	ra,12800 <__call_exitprocs>
   10264:	81c1a503          	lw	a0,-2020(gp) # 229c4 <_global_impure_ptr>
   10268:	03c52783          	lw	a5,60(a0)
   1026c:	00078463          	beqz	a5,10274 <exit+0x28>
   10270:	000780e7          	jalr	a5
   10274:	00040513          	mv	a0,s0
   10278:	4c90b0ef          	jal	ra,1bf40 <_exit>

0001027c <__libc_fini_array>:
   1027c:	fe010113          	addi	sp,sp,-32
   10280:	000227b7          	lui	a5,0x22
   10284:	00022737          	lui	a4,0x22
   10288:	00812c23          	sw	s0,24(sp)
   1028c:	00470713          	addi	a4,a4,4 # 22004 <__init_array_end>
   10290:	00878413          	addi	s0,a5,8 # 22008 <__fini_array_end>
   10294:	40e40433          	sub	s0,s0,a4
   10298:	00912a23          	sw	s1,20(sp)
   1029c:	01212823          	sw	s2,16(sp)
   102a0:	01312623          	sw	s3,12(sp)
   102a4:	00112e23          	sw	ra,28(sp)
   102a8:	40245413          	srai	s0,s0,0x2
   102ac:	00000493          	li	s1,0
   102b0:	00878913          	addi	s2,a5,8
   102b4:	ffc00993          	li	s3,-4
   102b8:	02941063          	bne	s0,s1,102d8 <__libc_fini_array+0x5c>
   102bc:	01812403          	lw	s0,24(sp)
   102c0:	01c12083          	lw	ra,28(sp)
   102c4:	01412483          	lw	s1,20(sp)
   102c8:	01012903          	lw	s2,16(sp)
   102cc:	00c12983          	lw	s3,12(sp)
   102d0:	02010113          	addi	sp,sp,32
   102d4:	de1ff06f          	j	100b4 <_fini>
   102d8:	033487b3          	mul	a5,s1,s3
   102dc:	00148493          	addi	s1,s1,1
   102e0:	00f907b3          	add	a5,s2,a5
   102e4:	ffc7a783          	lw	a5,-4(a5)
   102e8:	000780e7          	jalr	a5
   102ec:	fcdff06f          	j	102b8 <__libc_fini_array+0x3c>

000102f0 <__libc_init_array>:
   102f0:	ff010113          	addi	sp,sp,-16
   102f4:	00812423          	sw	s0,8(sp)
   102f8:	00912223          	sw	s1,4(sp)
   102fc:	00022437          	lui	s0,0x22
   10300:	000224b7          	lui	s1,0x22
   10304:	00048793          	mv	a5,s1
   10308:	00040413          	mv	s0,s0
   1030c:	40f40433          	sub	s0,s0,a5
   10310:	01212023          	sw	s2,0(sp)
   10314:	00112623          	sw	ra,12(sp)
   10318:	40245413          	srai	s0,s0,0x2
   1031c:	00048493          	mv	s1,s1
   10320:	00000913          	li	s2,0
   10324:	04891263          	bne	s2,s0,10368 <__libc_init_array+0x78>
   10328:	000224b7          	lui	s1,0x22
   1032c:	d89ff0ef          	jal	ra,100b4 <_fini>
   10330:	00022437          	lui	s0,0x22
   10334:	00048793          	mv	a5,s1
   10338:	00440413          	addi	s0,s0,4 # 22004 <__init_array_end>
   1033c:	40f40433          	sub	s0,s0,a5
   10340:	40245413          	srai	s0,s0,0x2
   10344:	00048493          	mv	s1,s1
   10348:	00000913          	li	s2,0
   1034c:	02891863          	bne	s2,s0,1037c <__libc_init_array+0x8c>
   10350:	00c12083          	lw	ra,12(sp)
   10354:	00812403          	lw	s0,8(sp)
   10358:	00412483          	lw	s1,4(sp)
   1035c:	00012903          	lw	s2,0(sp)
   10360:	01010113          	addi	sp,sp,16
   10364:	00008067          	ret
   10368:	0004a783          	lw	a5,0(s1) # 22000 <__frame_dummy_init_array_entry>
   1036c:	00190913          	addi	s2,s2,1
   10370:	00448493          	addi	s1,s1,4
   10374:	000780e7          	jalr	a5
   10378:	fadff06f          	j	10324 <__libc_init_array+0x34>
   1037c:	0004a783          	lw	a5,0(s1)
   10380:	00190913          	addi	s2,s2,1
   10384:	00448493          	addi	s1,s1,4
   10388:	000780e7          	jalr	a5
   1038c:	fc1ff06f          	j	1034c <__libc_init_array+0x5c>

00010390 <memset>:
   10390:	00f00313          	li	t1,15
   10394:	00050713          	mv	a4,a0
   10398:	02c37e63          	bleu	a2,t1,103d4 <memset+0x44>
   1039c:	00f77793          	andi	a5,a4,15
   103a0:	0a079063          	bnez	a5,10440 <memset+0xb0>
   103a4:	08059263          	bnez	a1,10428 <memset+0x98>
   103a8:	ff067693          	andi	a3,a2,-16
   103ac:	00f67613          	andi	a2,a2,15
   103b0:	00e686b3          	add	a3,a3,a4
   103b4:	00b72023          	sw	a1,0(a4)
   103b8:	00b72223          	sw	a1,4(a4)
   103bc:	00b72423          	sw	a1,8(a4)
   103c0:	00b72623          	sw	a1,12(a4)
   103c4:	01070713          	addi	a4,a4,16
   103c8:	fed766e3          	bltu	a4,a3,103b4 <memset+0x24>
   103cc:	00061463          	bnez	a2,103d4 <memset+0x44>
   103d0:	00008067          	ret
   103d4:	40c306b3          	sub	a3,t1,a2
   103d8:	00269693          	slli	a3,a3,0x2
   103dc:	00000297          	auipc	t0,0x0
   103e0:	005686b3          	add	a3,a3,t0
   103e4:	00c68067          	jr	12(a3)
   103e8:	00b70723          	sb	a1,14(a4)
   103ec:	00b706a3          	sb	a1,13(a4)
   103f0:	00b70623          	sb	a1,12(a4)
   103f4:	00b705a3          	sb	a1,11(a4)
   103f8:	00b70523          	sb	a1,10(a4)
   103fc:	00b704a3          	sb	a1,9(a4)
   10400:	00b70423          	sb	a1,8(a4)
   10404:	00b703a3          	sb	a1,7(a4)
   10408:	00b70323          	sb	a1,6(a4)
   1040c:	00b702a3          	sb	a1,5(a4)
   10410:	00b70223          	sb	a1,4(a4)
   10414:	00b701a3          	sb	a1,3(a4)
   10418:	00b70123          	sb	a1,2(a4)
   1041c:	00b700a3          	sb	a1,1(a4)
   10420:	00b70023          	sb	a1,0(a4)
   10424:	00008067          	ret
   10428:	0ff5f593          	andi	a1,a1,255
   1042c:	00859693          	slli	a3,a1,0x8
   10430:	00d5e5b3          	or	a1,a1,a3
   10434:	01059693          	slli	a3,a1,0x10
   10438:	00d5e5b3          	or	a1,a1,a3
   1043c:	f6dff06f          	j	103a8 <memset+0x18>
   10440:	00279693          	slli	a3,a5,0x2
   10444:	00000297          	auipc	t0,0x0
   10448:	005686b3          	add	a3,a3,t0
   1044c:	00008293          	mv	t0,ra
   10450:	fa0680e7          	jalr	-96(a3)
   10454:	00028093          	mv	ra,t0
   10458:	ff078793          	addi	a5,a5,-16
   1045c:	40f70733          	sub	a4,a4,a5
   10460:	00f60633          	add	a2,a2,a5
   10464:	f6c378e3          	bleu	a2,t1,103d4 <memset+0x44>
   10468:	f3dff06f          	j	103a4 <memset+0x14>

0001046c <_printf_r>:
   1046c:	fc010113          	addi	sp,sp,-64
   10470:	02c12423          	sw	a2,40(sp)
   10474:	02d12623          	sw	a3,44(sp)
   10478:	02e12823          	sw	a4,48(sp)
   1047c:	02f12a23          	sw	a5,52(sp)
   10480:	03012c23          	sw	a6,56(sp)
   10484:	03112e23          	sw	a7,60(sp)
   10488:	00058613          	mv	a2,a1
   1048c:	00852583          	lw	a1,8(a0)
   10490:	02810693          	addi	a3,sp,40
   10494:	00112e23          	sw	ra,28(sp)
   10498:	00d12623          	sw	a3,12(sp)
   1049c:	14c000ef          	jal	ra,105e8 <_vfprintf_r>
   104a0:	01c12083          	lw	ra,28(sp)
   104a4:	04010113          	addi	sp,sp,64
   104a8:	00008067          	ret

000104ac <printf>:
   104ac:	fc010113          	addi	sp,sp,-64
   104b0:	02f12a23          	sw	a5,52(sp)
   104b4:	8201a783          	lw	a5,-2016(gp) # 229c8 <_impure_ptr>
   104b8:	02c12423          	sw	a2,40(sp)
   104bc:	02d12623          	sw	a3,44(sp)
   104c0:	02b12223          	sw	a1,36(sp)
   104c4:	02e12823          	sw	a4,48(sp)
   104c8:	03012c23          	sw	a6,56(sp)
   104cc:	03112e23          	sw	a7,60(sp)
   104d0:	0087a583          	lw	a1,8(a5)
   104d4:	02410693          	addi	a3,sp,36
   104d8:	00050613          	mv	a2,a0
   104dc:	00078513          	mv	a0,a5
   104e0:	00112e23          	sw	ra,28(sp)
   104e4:	00d12623          	sw	a3,12(sp)
   104e8:	100000ef          	jal	ra,105e8 <_vfprintf_r>
   104ec:	01c12083          	lw	ra,28(sp)
   104f0:	04010113          	addi	sp,sp,64
   104f4:	00008067          	ret

000104f8 <_puts_r>:
   104f8:	fc010113          	addi	sp,sp,-64
   104fc:	02812c23          	sw	s0,56(sp)
   10500:	00050413          	mv	s0,a0
   10504:	00058513          	mv	a0,a1
   10508:	00b12623          	sw	a1,12(sp)
   1050c:	02112e23          	sw	ra,60(sp)
   10510:	0bc000ef          	jal	ra,105cc <strlen>
   10514:	000217b7          	lui	a5,0x21
   10518:	8b878793          	addi	a5,a5,-1864 # 208b8 <__clzsi2+0x98>
   1051c:	02f12423          	sw	a5,40(sp)
   10520:	00100793          	li	a5,1
   10524:	02f12623          	sw	a5,44(sp)
   10528:	02010793          	addi	a5,sp,32
   1052c:	00c12583          	lw	a1,12(sp)
   10530:	00f12a23          	sw	a5,20(sp)
   10534:	00200793          	li	a5,2
   10538:	00f12c23          	sw	a5,24(sp)
   1053c:	03842783          	lw	a5,56(s0)
   10540:	02a12223          	sw	a0,36(sp)
   10544:	00150513          	addi	a0,a0,1
   10548:	02b12023          	sw	a1,32(sp)
   1054c:	00a12e23          	sw	a0,28(sp)
   10550:	00842583          	lw	a1,8(s0)
   10554:	00079a63          	bnez	a5,10568 <_puts_r+0x70>
   10558:	00040513          	mv	a0,s0
   1055c:	00b12623          	sw	a1,12(sp)
   10560:	744020ef          	jal	ra,12ca4 <__sinit>
   10564:	00c12583          	lw	a1,12(sp)
   10568:	00c59783          	lh	a5,12(a1)
   1056c:	01279713          	slli	a4,a5,0x12
   10570:	02074263          	bltz	a4,10594 <_puts_r+0x9c>
   10574:	000026b7          	lui	a3,0x2
   10578:	0645a703          	lw	a4,100(a1)
   1057c:	00d7e7b3          	or	a5,a5,a3
   10580:	00f59623          	sh	a5,12(a1)
   10584:	ffffe7b7          	lui	a5,0xffffe
   10588:	fff78793          	addi	a5,a5,-1 # ffffdfff <__global_pointer$+0xfffdae57>
   1058c:	00f777b3          	and	a5,a4,a5
   10590:	06f5a223          	sw	a5,100(a1)
   10594:	01410613          	addi	a2,sp,20
   10598:	00040513          	mv	a0,s0
   1059c:	411020ef          	jal	ra,131ac <__sfvwrite_r>
   105a0:	fff00793          	li	a5,-1
   105a4:	00051463          	bnez	a0,105ac <_puts_r+0xb4>
   105a8:	00a00793          	li	a5,10
   105ac:	03c12083          	lw	ra,60(sp)
   105b0:	03812403          	lw	s0,56(sp)
   105b4:	00078513          	mv	a0,a5
   105b8:	04010113          	addi	sp,sp,64
   105bc:	00008067          	ret

000105c0 <puts>:
   105c0:	00050593          	mv	a1,a0
   105c4:	8201a503          	lw	a0,-2016(gp) # 229c8 <_impure_ptr>
   105c8:	f31ff06f          	j	104f8 <_puts_r>

000105cc <strlen>:
   105cc:	00050793          	mv	a5,a0
   105d0:	00178793          	addi	a5,a5,1
   105d4:	fff7c703          	lbu	a4,-1(a5)
   105d8:	fe071ce3          	bnez	a4,105d0 <strlen+0x4>
   105dc:	40a78533          	sub	a0,a5,a0
   105e0:	fff50513          	addi	a0,a0,-1
   105e4:	00008067          	ret

000105e8 <_vfprintf_r>:
   105e8:	e2010113          	addi	sp,sp,-480
   105ec:	1c112e23          	sw	ra,476(sp)
   105f0:	1c912a23          	sw	s1,468(sp)
   105f4:	1d212823          	sw	s2,464(sp)
   105f8:	1d312623          	sw	s3,460(sp)
   105fc:	1d512223          	sw	s5,452(sp)
   10600:	00058913          	mv	s2,a1
   10604:	00060493          	mv	s1,a2
   10608:	00068a93          	mv	s5,a3
   1060c:	1c812c23          	sw	s0,472(sp)
   10610:	1d412423          	sw	s4,456(sp)
   10614:	1d612023          	sw	s6,448(sp)
   10618:	1b712e23          	sw	s7,444(sp)
   1061c:	1b812c23          	sw	s8,440(sp)
   10620:	1b912a23          	sw	s9,436(sp)
   10624:	1ba12823          	sw	s10,432(sp)
   10628:	1bb12623          	sw	s11,428(sp)
   1062c:	00050993          	mv	s3,a0
   10630:	158050ef          	jal	ra,15788 <_localeconv_r>
   10634:	00052783          	lw	a5,0(a0)
   10638:	00078513          	mv	a0,a5
   1063c:	02f12a23          	sw	a5,52(sp)
   10640:	f8dff0ef          	jal	ra,105cc <strlen>
   10644:	02a12023          	sw	a0,32(sp)
   10648:	0e012023          	sw	zero,224(sp)
   1064c:	0e012223          	sw	zero,228(sp)
   10650:	0e012423          	sw	zero,232(sp)
   10654:	0e012623          	sw	zero,236(sp)
   10658:	00098a63          	beqz	s3,1066c <_vfprintf_r+0x84>
   1065c:	0389a783          	lw	a5,56(s3)
   10660:	00079663          	bnez	a5,1066c <_vfprintf_r+0x84>
   10664:	00098513          	mv	a0,s3
   10668:	63c020ef          	jal	ra,12ca4 <__sinit>
   1066c:	00c91783          	lh	a5,12(s2)
   10670:	01279713          	slli	a4,a5,0x12
   10674:	02074263          	bltz	a4,10698 <_vfprintf_r+0xb0>
   10678:	000026b7          	lui	a3,0x2
   1067c:	06492703          	lw	a4,100(s2)
   10680:	00d7e7b3          	or	a5,a5,a3
   10684:	00f91623          	sh	a5,12(s2)
   10688:	ffffe7b7          	lui	a5,0xffffe
   1068c:	fff78793          	addi	a5,a5,-1 # ffffdfff <__global_pointer$+0xfffdae57>
   10690:	00f777b3          	and	a5,a4,a5
   10694:	06f92223          	sw	a5,100(s2)
   10698:	00c95783          	lhu	a5,12(s2)
   1069c:	0087f793          	andi	a5,a5,8
   106a0:	06078e63          	beqz	a5,1071c <_vfprintf_r+0x134>
   106a4:	01092783          	lw	a5,16(s2)
   106a8:	06078a63          	beqz	a5,1071c <_vfprintf_r+0x134>
   106ac:	00c95783          	lhu	a5,12(s2)
   106b0:	00a00713          	li	a4,10
   106b4:	01a7f793          	andi	a5,a5,26
   106b8:	08e79063          	bne	a5,a4,10738 <_vfprintf_r+0x150>
   106bc:	00e91783          	lh	a5,14(s2)
   106c0:	0607cc63          	bltz	a5,10738 <_vfprintf_r+0x150>
   106c4:	000a8693          	mv	a3,s5
   106c8:	00048613          	mv	a2,s1
   106cc:	00090593          	mv	a1,s2
   106d0:	00098513          	mv	a0,s3
   106d4:	6c1010ef          	jal	ra,12594 <__sbprintf>
   106d8:	02a12223          	sw	a0,36(sp)
   106dc:	1dc12083          	lw	ra,476(sp)
   106e0:	1d812403          	lw	s0,472(sp)
   106e4:	02412503          	lw	a0,36(sp)
   106e8:	1d412483          	lw	s1,468(sp)
   106ec:	1d012903          	lw	s2,464(sp)
   106f0:	1cc12983          	lw	s3,460(sp)
   106f4:	1c812a03          	lw	s4,456(sp)
   106f8:	1c412a83          	lw	s5,452(sp)
   106fc:	1c012b03          	lw	s6,448(sp)
   10700:	1bc12b83          	lw	s7,444(sp)
   10704:	1b812c03          	lw	s8,440(sp)
   10708:	1b412c83          	lw	s9,436(sp)
   1070c:	1b012d03          	lw	s10,432(sp)
   10710:	1ac12d83          	lw	s11,428(sp)
   10714:	1e010113          	addi	sp,sp,480
   10718:	00008067          	ret
   1071c:	00090593          	mv	a1,s2
   10720:	00098513          	mv	a0,s3
   10724:	72d010ef          	jal	ra,12650 <__swsetup_r>
   10728:	f80502e3          	beqz	a0,106ac <_vfprintf_r+0xc4>
   1072c:	fff00793          	li	a5,-1
   10730:	02f12223          	sw	a5,36(sp)
   10734:	fa9ff06f          	j	106dc <_vfprintf_r+0xf4>
   10738:	000217b7          	lui	a5,0x21
   1073c:	8bc78793          	addi	a5,a5,-1860 # 208bc <__clzsi2+0x9c>
   10740:	04f12623          	sw	a5,76(sp)
   10744:	000217b7          	lui	a5,0x21
   10748:	0fc10893          	addi	a7,sp,252
   1074c:	a3878793          	addi	a5,a5,-1480 # 20a38 <zeroes.4405>
   10750:	0d112a23          	sw	a7,212(sp)
   10754:	0c012e23          	sw	zero,220(sp)
   10758:	0c012c23          	sw	zero,216(sp)
   1075c:	00000a13          	li	s4,0
   10760:	04012023          	sw	zero,64(sp)
   10764:	02012e23          	sw	zero,60(sp)
   10768:	00012823          	sw	zero,16(sp)
   1076c:	02012823          	sw	zero,48(sp)
   10770:	02012c23          	sw	zero,56(sp)
   10774:	02012223          	sw	zero,36(sp)
   10778:	00f12a23          	sw	a5,20(sp)
   1077c:	00048413          	mv	s0,s1
   10780:	02500713          	li	a4,37
   10784:	00044783          	lbu	a5,0(s0)
   10788:	00078463          	beqz	a5,10790 <_vfprintf_r+0x1a8>
   1078c:	0ce79063          	bne	a5,a4,1084c <_vfprintf_r+0x264>
   10790:	40940b33          	sub	s6,s0,s1
   10794:	040b0a63          	beqz	s6,107e8 <_vfprintf_r+0x200>
   10798:	0dc12783          	lw	a5,220(sp)
   1079c:	0098a023          	sw	s1,0(a7)
   107a0:	0168a223          	sw	s6,4(a7)
   107a4:	016787b3          	add	a5,a5,s6
   107a8:	0cf12e23          	sw	a5,220(sp)
   107ac:	0d812783          	lw	a5,216(sp)
   107b0:	00700713          	li	a4,7
   107b4:	00888893          	addi	a7,a7,8
   107b8:	00178793          	addi	a5,a5,1
   107bc:	0cf12c23          	sw	a5,216(sp)
   107c0:	00f75e63          	ble	a5,a4,107dc <_vfprintf_r+0x1f4>
   107c4:	0d410613          	addi	a2,sp,212
   107c8:	00090593          	mv	a1,s2
   107cc:	00098513          	mv	a0,s3
   107d0:	270090ef          	jal	ra,19a40 <__sprint_r>
   107d4:	4e051663          	bnez	a0,10cc0 <_vfprintf_r+0x6d8>
   107d8:	0fc10893          	addi	a7,sp,252
   107dc:	02412783          	lw	a5,36(sp)
   107e0:	016787b3          	add	a5,a5,s6
   107e4:	02f12223          	sw	a5,36(sp)
   107e8:	00044783          	lbu	a5,0(s0)
   107ec:	00079463          	bnez	a5,107f4 <_vfprintf_r+0x20c>
   107f0:	5710106f          	j	12560 <_vfprintf_r+0x1f78>
   107f4:	00140793          	addi	a5,s0,1
   107f8:	00f12e23          	sw	a5,28(sp)
   107fc:	0a010ba3          	sb	zero,183(sp)
   10800:	fff00b13          	li	s6,-1
   10804:	02012423          	sw	zero,40(sp)
   10808:	00000413          	li	s0,0
   1080c:	00a00c13          	li	s8,10
   10810:	02a00b93          	li	s7,42
   10814:	05a00613          	li	a2,90
   10818:	00900713          	li	a4,9
   1081c:	01c12783          	lw	a5,28(sp)
   10820:	0007cd03          	lbu	s10,0(a5)
   10824:	00178793          	addi	a5,a5,1
   10828:	00f12e23          	sw	a5,28(sp)
   1082c:	fe0d0793          	addi	a5,s10,-32
   10830:	00f67463          	bleu	a5,a2,10838 <_vfprintf_r+0x250>
   10834:	2600106f          	j	11a94 <_vfprintf_r+0x14ac>
   10838:	04c12683          	lw	a3,76(sp)
   1083c:	00279793          	slli	a5,a5,0x2
   10840:	00d787b3          	add	a5,a5,a3
   10844:	0007a783          	lw	a5,0(a5)
   10848:	00078067          	jr	a5
   1084c:	00140413          	addi	s0,s0,1
   10850:	f35ff06f          	j	10784 <_vfprintf_r+0x19c>
   10854:	000217b7          	lui	a5,0x21
   10858:	a6c78793          	addi	a5,a5,-1428 # 20a6c <zeroes.4405+0x34>
   1085c:	04f12023          	sw	a5,64(sp)
   10860:	02047793          	andi	a5,s0,32
   10864:	00079463          	bnez	a5,1086c <_vfprintf_r+0x284>
   10868:	0480106f          	j	118b0 <_vfprintf_r+0x12c8>
   1086c:	007a8a93          	addi	s5,s5,7
   10870:	ff8afa93          	andi	s5,s5,-8
   10874:	000aac83          	lw	s9,0(s5)
   10878:	004aac03          	lw	s8,4(s5)
   1087c:	008a8793          	addi	a5,s5,8
   10880:	00f12c23          	sw	a5,24(sp)
   10884:	00147793          	andi	a5,s0,1
   10888:	00078e63          	beqz	a5,108a4 <_vfprintf_r+0x2bc>
   1088c:	018ce7b3          	or	a5,s9,s8
   10890:	00078a63          	beqz	a5,108a4 <_vfprintf_r+0x2bc>
   10894:	03000793          	li	a5,48
   10898:	0af10c23          	sb	a5,184(sp)
   1089c:	0ba10ca3          	sb	s10,185(sp)
   108a0:	00246413          	ori	s0,s0,2
   108a4:	bff47413          	andi	s0,s0,-1025
   108a8:	00200793          	li	a5,2
   108ac:	4150006f          	j	114c0 <_vfprintf_r+0xed8>
   108b0:	00098513          	mv	a0,s3
   108b4:	01112623          	sw	a7,12(sp)
   108b8:	6d1040ef          	jal	ra,15788 <_localeconv_r>
   108bc:	00452783          	lw	a5,4(a0)
   108c0:	00078513          	mv	a0,a5
   108c4:	02f12c23          	sw	a5,56(sp)
   108c8:	d05ff0ef          	jal	ra,105cc <strlen>
   108cc:	02a12823          	sw	a0,48(sp)
   108d0:	00098513          	mv	a0,s3
   108d4:	6b5040ef          	jal	ra,15788 <_localeconv_r>
   108d8:	00852783          	lw	a5,8(a0)
   108dc:	00c12883          	lw	a7,12(sp)
   108e0:	00f12823          	sw	a5,16(sp)
   108e4:	03012783          	lw	a5,48(sp)
   108e8:	f20786e3          	beqz	a5,10814 <_vfprintf_r+0x22c>
   108ec:	01012783          	lw	a5,16(sp)
   108f0:	f20782e3          	beqz	a5,10814 <_vfprintf_r+0x22c>
   108f4:	0007c783          	lbu	a5,0(a5)
   108f8:	f0078ee3          	beqz	a5,10814 <_vfprintf_r+0x22c>
   108fc:	40046413          	ori	s0,s0,1024
   10900:	f15ff06f          	j	10814 <_vfprintf_r+0x22c>
   10904:	0b714783          	lbu	a5,183(sp)
   10908:	f00796e3          	bnez	a5,10814 <_vfprintf_r+0x22c>
   1090c:	02000793          	li	a5,32
   10910:	0af10ba3          	sb	a5,183(sp)
   10914:	f01ff06f          	j	10814 <_vfprintf_r+0x22c>
   10918:	00146413          	ori	s0,s0,1
   1091c:	ef9ff06f          	j	10814 <_vfprintf_r+0x22c>
   10920:	000aa783          	lw	a5,0(s5)
   10924:	004a8a93          	addi	s5,s5,4
   10928:	02f12423          	sw	a5,40(sp)
   1092c:	ee07d4e3          	bgez	a5,10814 <_vfprintf_r+0x22c>
   10930:	40f007b3          	neg	a5,a5
   10934:	02f12423          	sw	a5,40(sp)
   10938:	00446413          	ori	s0,s0,4
   1093c:	ed9ff06f          	j	10814 <_vfprintf_r+0x22c>
   10940:	02b00793          	li	a5,43
   10944:	fcdff06f          	j	10910 <_vfprintf_r+0x328>
   10948:	01c12683          	lw	a3,28(sp)
   1094c:	01c12783          	lw	a5,28(sp)
   10950:	0006cd03          	lbu	s10,0(a3) # 2000 <_start-0xe074>
   10954:	00178793          	addi	a5,a5,1
   10958:	037d1e63          	bne	s10,s7,10994 <_vfprintf_r+0x3ac>
   1095c:	000aab03          	lw	s6,0(s5)
   10960:	004a8713          	addi	a4,s5,4
   10964:	000b5463          	bgez	s6,1096c <_vfprintf_r+0x384>
   10968:	fff00b13          	li	s6,-1
   1096c:	00070a93          	mv	s5,a4
   10970:	00f12e23          	sw	a5,28(sp)
   10974:	ea1ff06f          	j	10814 <_vfprintf_r+0x22c>
   10978:	038b0333          	mul	t1,s6,s8
   1097c:	00178793          	addi	a5,a5,1
   10980:	fff7cd03          	lbu	s10,-1(a5)
   10984:	00d30b33          	add	s6,t1,a3
   10988:	fd0d0693          	addi	a3,s10,-48
   1098c:	fed776e3          	bleu	a3,a4,10978 <_vfprintf_r+0x390>
   10990:	e99ff06f          	j	10828 <_vfprintf_r+0x240>
   10994:	00000b13          	li	s6,0
   10998:	ff1ff06f          	j	10988 <_vfprintf_r+0x3a0>
   1099c:	08046413          	ori	s0,s0,128
   109a0:	e75ff06f          	j	10814 <_vfprintf_r+0x22c>
   109a4:	01c12783          	lw	a5,28(sp)
   109a8:	02012423          	sw	zero,40(sp)
   109ac:	02812683          	lw	a3,40(sp)
   109b0:	fd0d0d13          	addi	s10,s10,-48
   109b4:	00178793          	addi	a5,a5,1
   109b8:	038686b3          	mul	a3,a3,s8
   109bc:	00dd06b3          	add	a3,s10,a3
   109c0:	fff7cd03          	lbu	s10,-1(a5)
   109c4:	02d12423          	sw	a3,40(sp)
   109c8:	fd0d0693          	addi	a3,s10,-48
   109cc:	fed770e3          	bleu	a3,a4,109ac <_vfprintf_r+0x3c4>
   109d0:	e59ff06f          	j	10828 <_vfprintf_r+0x240>
   109d4:	00846413          	ori	s0,s0,8
   109d8:	e3dff06f          	j	10814 <_vfprintf_r+0x22c>
   109dc:	01c12783          	lw	a5,28(sp)
   109e0:	0007c703          	lbu	a4,0(a5)
   109e4:	06800793          	li	a5,104
   109e8:	00f71c63          	bne	a4,a5,10a00 <_vfprintf_r+0x418>
   109ec:	01c12783          	lw	a5,28(sp)
   109f0:	20046413          	ori	s0,s0,512
   109f4:	00178793          	addi	a5,a5,1
   109f8:	00f12e23          	sw	a5,28(sp)
   109fc:	e19ff06f          	j	10814 <_vfprintf_r+0x22c>
   10a00:	04046413          	ori	s0,s0,64
   10a04:	e11ff06f          	j	10814 <_vfprintf_r+0x22c>
   10a08:	01c12783          	lw	a5,28(sp)
   10a0c:	0007c703          	lbu	a4,0(a5)
   10a10:	06c00793          	li	a5,108
   10a14:	00f71c63          	bne	a4,a5,10a2c <_vfprintf_r+0x444>
   10a18:	01c12783          	lw	a5,28(sp)
   10a1c:	00178793          	addi	a5,a5,1
   10a20:	00f12e23          	sw	a5,28(sp)
   10a24:	02046413          	ori	s0,s0,32
   10a28:	dedff06f          	j	10814 <_vfprintf_r+0x22c>
   10a2c:	01046413          	ori	s0,s0,16
   10a30:	de5ff06f          	j	10814 <_vfprintf_r+0x22c>
   10a34:	004a8793          	addi	a5,s5,4
   10a38:	00f12c23          	sw	a5,24(sp)
   10a3c:	000aa783          	lw	a5,0(s5)
   10a40:	0a010ba3          	sb	zero,183(sp)
   10a44:	12f10e23          	sb	a5,316(sp)
   10a48:	00012623          	sw	zero,12(sp)
   10a4c:	00100b13          	li	s6,1
   10a50:	00000a93          	li	s5,0
   10a54:	00000c13          	li	s8,0
   10a58:	00000b93          	li	s7,0
   10a5c:	00000c93          	li	s9,0
   10a60:	13c10493          	addi	s1,sp,316
   10a64:	3650006f          	j	115c8 <_vfprintf_r+0xfe0>
   10a68:	01046413          	ori	s0,s0,16
   10a6c:	02047793          	andi	a5,s0,32
   10a70:	04078e63          	beqz	a5,10acc <_vfprintf_r+0x4e4>
   10a74:	007a8a93          	addi	s5,s5,7
   10a78:	ff8afa93          	andi	s5,s5,-8
   10a7c:	000aac83          	lw	s9,0(s5)
   10a80:	004aac03          	lw	s8,4(s5)
   10a84:	008a8793          	addi	a5,s5,8
   10a88:	00f12c23          	sw	a5,24(sp)
   10a8c:	000c5e63          	bgez	s8,10aa8 <_vfprintf_r+0x4c0>
   10a90:	41900cb3          	neg	s9,s9
   10a94:	019037b3          	snez	a5,s9
   10a98:	41800c33          	neg	s8,s8
   10a9c:	40fc0c33          	sub	s8,s8,a5
   10aa0:	02d00793          	li	a5,45
   10aa4:	0af10ba3          	sb	a5,183(sp)
   10aa8:	fff00793          	li	a5,-1
   10aac:	64fb10e3          	bne	s6,a5,118ec <_vfprintf_r+0x1304>
   10ab0:	6c0c12e3          	bnez	s8,11974 <_vfprintf_r+0x138c>
   10ab4:	00900793          	li	a5,9
   10ab8:	6b97eee3          	bltu	a5,s9,11974 <_vfprintf_r+0x138c>
   10abc:	030c8c93          	addi	s9,s9,48
   10ac0:	19910fa3          	sb	s9,415(sp)
   10ac4:	19f10493          	addi	s1,sp,415
   10ac8:	6850006f          	j	1194c <_vfprintf_r+0x1364>
   10acc:	004a8793          	addi	a5,s5,4
   10ad0:	00f12c23          	sw	a5,24(sp)
   10ad4:	01047793          	andi	a5,s0,16
   10ad8:	00078863          	beqz	a5,10ae8 <_vfprintf_r+0x500>
   10adc:	000aac83          	lw	s9,0(s5)
   10ae0:	41fcdc13          	srai	s8,s9,0x1f
   10ae4:	fa9ff06f          	j	10a8c <_vfprintf_r+0x4a4>
   10ae8:	04047793          	andi	a5,s0,64
   10aec:	000aac83          	lw	s9,0(s5)
   10af0:	00078863          	beqz	a5,10b00 <_vfprintf_r+0x518>
   10af4:	010c9c93          	slli	s9,s9,0x10
   10af8:	410cdc93          	srai	s9,s9,0x10
   10afc:	fe5ff06f          	j	10ae0 <_vfprintf_r+0x4f8>
   10b00:	20047793          	andi	a5,s0,512
   10b04:	fc078ee3          	beqz	a5,10ae0 <_vfprintf_r+0x4f8>
   10b08:	018c9c93          	slli	s9,s9,0x18
   10b0c:	418cdc93          	srai	s9,s9,0x18
   10b10:	fd1ff06f          	j	10ae0 <_vfprintf_r+0x4f8>
   10b14:	00847793          	andi	a5,s0,8
   10b18:	0a078e63          	beqz	a5,10bd4 <_vfprintf_r+0x5ec>
   10b1c:	004a8793          	addi	a5,s5,4
   10b20:	00f12c23          	sw	a5,24(sp)
   10b24:	000aa783          	lw	a5,0(s5)
   10b28:	0007a603          	lw	a2,0(a5)
   10b2c:	0047a683          	lw	a3,4(a5)
   10b30:	0087a703          	lw	a4,8(a5)
   10b34:	00c7a783          	lw	a5,12(a5)
   10b38:	0ec12023          	sw	a2,224(sp)
   10b3c:	0ed12223          	sw	a3,228(sp)
   10b40:	0ee12423          	sw	a4,232(sp)
   10b44:	0ef12623          	sw	a5,236(sp)
   10b48:	0e010513          	addi	a0,sp,224
   10b4c:	01112623          	sw	a7,12(sp)
   10b50:	3cd040ef          	jal	ra,1571c <_ldcheck>
   10b54:	0aa12e23          	sw	a0,188(sp)
   10b58:	00200793          	li	a5,2
   10b5c:	00c12883          	lw	a7,12(sp)
   10b60:	0cf51663          	bne	a0,a5,10c2c <_vfprintf_r+0x644>
   10b64:	0e012783          	lw	a5,224(sp)
   10b68:	09010593          	addi	a1,sp,144
   10b6c:	0a010513          	addi	a0,sp,160
   10b70:	0af12023          	sw	a5,160(sp)
   10b74:	0e412783          	lw	a5,228(sp)
   10b78:	08012823          	sw	zero,144(sp)
   10b7c:	08012a23          	sw	zero,148(sp)
   10b80:	0af12223          	sw	a5,164(sp)
   10b84:	0e812783          	lw	a5,232(sp)
   10b88:	08012c23          	sw	zero,152(sp)
   10b8c:	08012e23          	sw	zero,156(sp)
   10b90:	0af12423          	sw	a5,168(sp)
   10b94:	0ec12783          	lw	a5,236(sp)
   10b98:	0af12623          	sw	a5,172(sp)
   10b9c:	5c90c0ef          	jal	ra,1d964 <__letf2>
   10ba0:	00c12883          	lw	a7,12(sp)
   10ba4:	00055663          	bgez	a0,10bb0 <_vfprintf_r+0x5c8>
   10ba8:	02d00793          	li	a5,45
   10bac:	0af10ba3          	sb	a5,183(sp)
   10bb0:	04700793          	li	a5,71
   10bb4:	07a7c663          	blt	a5,s10,10c20 <_vfprintf_r+0x638>
   10bb8:	000214b7          	lui	s1,0x21
   10bbc:	a4848493          	addi	s1,s1,-1464 # 20a48 <zeroes.4405+0x10>
   10bc0:	f7f47413          	andi	s0,s0,-129
   10bc4:	00012623          	sw	zero,12(sp)
   10bc8:	00300b13          	li	s6,3
   10bcc:	00000a93          	li	s5,0
   10bd0:	58d0006f          	j	1195c <_vfprintf_r+0x1374>
   10bd4:	007a8a93          	addi	s5,s5,7
   10bd8:	ff8afa93          	andi	s5,s5,-8
   10bdc:	000aa583          	lw	a1,0(s5)
   10be0:	004aa603          	lw	a2,4(s5)
   10be4:	008a8793          	addi	a5,s5,8
   10be8:	0a010513          	addi	a0,sp,160
   10bec:	01112623          	sw	a7,12(sp)
   10bf0:	00f12c23          	sw	a5,24(sp)
   10bf4:	6b00f0ef          	jal	ra,202a4 <__extenddftf2>
   10bf8:	0a012783          	lw	a5,160(sp)
   10bfc:	00c12883          	lw	a7,12(sp)
   10c00:	0ef12023          	sw	a5,224(sp)
   10c04:	0a412783          	lw	a5,164(sp)
   10c08:	0ef12223          	sw	a5,228(sp)
   10c0c:	0a812783          	lw	a5,168(sp)
   10c10:	0ef12423          	sw	a5,232(sp)
   10c14:	0ac12783          	lw	a5,172(sp)
   10c18:	0ef12623          	sw	a5,236(sp)
   10c1c:	f2dff06f          	j	10b48 <_vfprintf_r+0x560>
   10c20:	000214b7          	lui	s1,0x21
   10c24:	a4c48493          	addi	s1,s1,-1460 # 20a4c <zeroes.4405+0x14>
   10c28:	f99ff06f          	j	10bc0 <_vfprintf_r+0x5d8>
   10c2c:	00100793          	li	a5,1
   10c30:	02f51a63          	bne	a0,a5,10c64 <_vfprintf_r+0x67c>
   10c34:	0ec12783          	lw	a5,236(sp)
   10c38:	0007d663          	bgez	a5,10c44 <_vfprintf_r+0x65c>
   10c3c:	02d00793          	li	a5,45
   10c40:	0af10ba3          	sb	a5,183(sp)
   10c44:	04700793          	li	a5,71
   10c48:	01a7c863          	blt	a5,s10,10c58 <_vfprintf_r+0x670>
   10c4c:	000214b7          	lui	s1,0x21
   10c50:	a5048493          	addi	s1,s1,-1456 # 20a50 <zeroes.4405+0x18>
   10c54:	f6dff06f          	j	10bc0 <_vfprintf_r+0x5d8>
   10c58:	000214b7          	lui	s1,0x21
   10c5c:	a5448493          	addi	s1,s1,-1452 # 20a54 <zeroes.4405+0x1c>
   10c60:	f61ff06f          	j	10bc0 <_vfprintf_r+0x5d8>
   10c64:	fdfd7b93          	andi	s7,s10,-33
   10c68:	04100793          	li	a5,65
   10c6c:	06fb9263          	bne	s7,a5,10cd0 <_vfprintf_r+0x6e8>
   10c70:	03000793          	li	a5,48
   10c74:	0af10c23          	sb	a5,184(sp)
   10c78:	06100713          	li	a4,97
   10c7c:	05800793          	li	a5,88
   10c80:	00ed1463          	bne	s10,a4,10c88 <_vfprintf_r+0x6a0>
   10c84:	07800793          	li	a5,120
   10c88:	0af10ca3          	sb	a5,185(sp)
   10c8c:	06300793          	li	a5,99
   10c90:	00246413          	ori	s0,s0,2
   10c94:	4b67d463          	ble	s6,a5,1113c <_vfprintf_r+0xb54>
   10c98:	001b0593          	addi	a1,s6,1
   10c9c:	00098513          	mv	a0,s3
   10ca0:	01112623          	sw	a7,12(sp)
   10ca4:	56d040ef          	jal	ra,15a10 <_malloc_r>
   10ca8:	00050493          	mv	s1,a0
   10cac:	00c12883          	lw	a7,12(sp)
   10cb0:	48051c63          	bnez	a0,11148 <_vfprintf_r+0xb60>
   10cb4:	00c95783          	lhu	a5,12(s2)
   10cb8:	0407e793          	ori	a5,a5,64
   10cbc:	00f91623          	sh	a5,12(s2)
   10cc0:	00c95783          	lhu	a5,12(s2)
   10cc4:	0407f793          	andi	a5,a5,64
   10cc8:	a0078ae3          	beqz	a5,106dc <_vfprintf_r+0xf4>
   10ccc:	a61ff06f          	j	1072c <_vfprintf_r+0x144>
   10cd0:	fff00793          	li	a5,-1
   10cd4:	46fb0e63          	beq	s6,a5,11150 <_vfprintf_r+0xb68>
   10cd8:	04700793          	li	a5,71
   10cdc:	00012623          	sw	zero,12(sp)
   10ce0:	00fb9463          	bne	s7,a5,10ce8 <_vfprintf_r+0x700>
   10ce4:	460b0c63          	beqz	s6,1115c <_vfprintf_r+0xb74>
   10ce8:	0ec12a03          	lw	s4,236(sp)
   10cec:	10046793          	ori	a5,s0,256
   10cf0:	02f12623          	sw	a5,44(sp)
   10cf4:	04012223          	sw	zero,68(sp)
   10cf8:	0e012e03          	lw	t3,224(sp)
   10cfc:	0e412d83          	lw	s11,228(sp)
   10d00:	0e812c83          	lw	s9,232(sp)
   10d04:	000a5a63          	bgez	s4,10d18 <_vfprintf_r+0x730>
   10d08:	800007b7          	lui	a5,0x80000
   10d0c:	0147ca33          	xor	s4,a5,s4
   10d10:	02d00793          	li	a5,45
   10d14:	04f12223          	sw	a5,68(sp)
   10d18:	04100793          	li	a5,65
   10d1c:	48fb9a63          	bne	s7,a5,111b0 <_vfprintf_r+0xbc8>
   10d20:	0a010513          	addi	a0,sp,160
   10d24:	05112c23          	sw	a7,88(sp)
   10d28:	0bc12023          	sw	t3,160(sp)
   10d2c:	0b912423          	sw	s9,168(sp)
   10d30:	0bb12223          	sw	s11,164(sp)
   10d34:	0b412623          	sw	s4,172(sp)
   10d38:	7900f0ef          	jal	ra,204c8 <__trunctfdf2>
   10d3c:	0bc10613          	addi	a2,sp,188
   10d40:	125060ef          	jal	ra,17664 <frexp>
   10d44:	00058613          	mv	a2,a1
   10d48:	00050593          	mv	a1,a0
   10d4c:	0a010513          	addi	a0,sp,160
   10d50:	5540f0ef          	jal	ra,202a4 <__extenddftf2>
   10d54:	0a012783          	lw	a5,160(sp)
   10d58:	07010613          	addi	a2,sp,112
   10d5c:	08010593          	addi	a1,sp,128
   10d60:	08f12023          	sw	a5,128(sp)
   10d64:	0a412783          	lw	a5,164(sp)
   10d68:	09010513          	addi	a0,sp,144
   10d6c:	06012823          	sw	zero,112(sp)
   10d70:	08f12223          	sw	a5,132(sp)
   10d74:	0a812783          	lw	a5,168(sp)
   10d78:	06012a23          	sw	zero,116(sp)
   10d7c:	06012c23          	sw	zero,120(sp)
   10d80:	08f12423          	sw	a5,136(sp)
   10d84:	0ac12783          	lw	a5,172(sp)
   10d88:	08f12623          	sw	a5,140(sp)
   10d8c:	3ffc07b7          	lui	a5,0x3ffc0
   10d90:	06f12e23          	sw	a5,124(sp)
   10d94:	5310c0ef          	jal	ra,1dac4 <__multf3>
   10d98:	09012803          	lw	a6,144(sp)
   10d9c:	09412603          	lw	a2,148(sp)
   10da0:	09812683          	lw	a3,152(sp)
   10da4:	09c12c83          	lw	s9,156(sp)
   10da8:	09010593          	addi	a1,sp,144
   10dac:	0a010513          	addi	a0,sp,160
   10db0:	0b012023          	sw	a6,160(sp)
   10db4:	05012a23          	sw	a6,84(sp)
   10db8:	0ac12223          	sw	a2,164(sp)
   10dbc:	04c12823          	sw	a2,80(sp)
   10dc0:	0ad12423          	sw	a3,168(sp)
   10dc4:	04d12423          	sw	a3,72(sp)
   10dc8:	0b912623          	sw	s9,172(sp)
   10dcc:	08012823          	sw	zero,144(sp)
   10dd0:	08012a23          	sw	zero,148(sp)
   10dd4:	08012c23          	sw	zero,152(sp)
   10dd8:	08012e23          	sw	zero,156(sp)
   10ddc:	15d0c0ef          	jal	ra,1d738 <__eqtf2>
   10de0:	04812683          	lw	a3,72(sp)
   10de4:	05012603          	lw	a2,80(sp)
   10de8:	05412803          	lw	a6,84(sp)
   10dec:	05812883          	lw	a7,88(sp)
   10df0:	00051663          	bnez	a0,10dfc <_vfprintf_r+0x814>
   10df4:	00100713          	li	a4,1
   10df8:	0ae12e23          	sw	a4,188(sp)
   10dfc:	06100713          	li	a4,97
   10e00:	36ed1463          	bne	s10,a4,11168 <_vfprintf_r+0xb80>
   10e04:	00021c37          	lui	s8,0x21
   10e08:	a58c0c13          	addi	s8,s8,-1448 # 20a58 <zeroes.4405+0x20>
   10e0c:	fffb0e13          	addi	t3,s6,-1
   10e10:	00048d93          	mv	s11,s1
   10e14:	400307b7          	lui	a5,0x40030
   10e18:	09010593          	addi	a1,sp,144
   10e1c:	08c12a23          	sw	a2,148(sp)
   10e20:	0a010513          	addi	a0,sp,160
   10e24:	08010613          	addi	a2,sp,128
   10e28:	05112c23          	sw	a7,88(sp)
   10e2c:	05c12a23          	sw	t3,84(sp)
   10e30:	09012823          	sw	a6,144(sp)
   10e34:	08f12623          	sw	a5,140(sp)
   10e38:	08d12c23          	sw	a3,152(sp)
   10e3c:	09912e23          	sw	s9,156(sp)
   10e40:	08012023          	sw	zero,128(sp)
   10e44:	08012223          	sw	zero,132(sp)
   10e48:	08012423          	sw	zero,136(sp)
   10e4c:	4790c0ef          	jal	ra,1dac4 <__multf3>
   10e50:	0a012603          	lw	a2,160(sp)
   10e54:	0a412683          	lw	a3,164(sp)
   10e58:	0a010513          	addi	a0,sp,160
   10e5c:	04c12823          	sw	a2,80(sp)
   10e60:	04d12423          	sw	a3,72(sp)
   10e64:	15c0f0ef          	jal	ra,1ffc0 <__fixtfsi>
   10e68:	00050593          	mv	a1,a0
   10e6c:	00050a13          	mv	s4,a0
   10e70:	0a010513          	addi	a0,sp,160
   10e74:	0a812c83          	lw	s9,168(sp)
   10e78:	0ac12a83          	lw	s5,172(sp)
   10e7c:	2a80f0ef          	jal	ra,20124 <__floatsitf>
   10e80:	0a012783          	lw	a5,160(sp)
   10e84:	05012603          	lw	a2,80(sp)
   10e88:	04812683          	lw	a3,72(sp)
   10e8c:	06f12823          	sw	a5,112(sp)
   10e90:	0a412783          	lw	a5,164(sp)
   10e94:	08c12023          	sw	a2,128(sp)
   10e98:	08010593          	addi	a1,sp,128
   10e9c:	06f12a23          	sw	a5,116(sp)
   10ea0:	0a812783          	lw	a5,168(sp)
   10ea4:	07010613          	addi	a2,sp,112
   10ea8:	09010513          	addi	a0,sp,144
   10eac:	06f12c23          	sw	a5,120(sp)
   10eb0:	0ac12783          	lw	a5,172(sp)
   10eb4:	09912423          	sw	s9,136(sp)
   10eb8:	09512623          	sw	s5,140(sp)
   10ebc:	06f12e23          	sw	a5,124(sp)
   10ec0:	08d12223          	sw	a3,132(sp)
   10ec4:	43d0d0ef          	jal	ra,1eb00 <__subtf3>
   10ec8:	014c05b3          	add	a1,s8,s4
   10ecc:	0005c583          	lbu	a1,0(a1)
   10ed0:	05412e03          	lw	t3,84(sp)
   10ed4:	09c12a83          	lw	s5,156(sp)
   10ed8:	001d8d93          	addi	s11,s11,1
   10edc:	09012283          	lw	t0,144(sp)
   10ee0:	09412f83          	lw	t6,148(sp)
   10ee4:	09812f03          	lw	t5,152(sp)
   10ee8:	05c12423          	sw	t3,72(sp)
   10eec:	febd8fa3          	sb	a1,-1(s11)
   10ef0:	fff00793          	li	a5,-1
   10ef4:	000a8c93          	mv	s9,s5
   10ef8:	05812883          	lw	a7,88(sp)
   10efc:	06fe0c63          	beq	t3,a5,10f74 <_vfprintf_r+0x98c>
   10f00:	fffe0e13          	addi	t3,t3,-1
   10f04:	09010593          	addi	a1,sp,144
   10f08:	0a010513          	addi	a0,sp,160
   10f0c:	07e12623          	sw	t5,108(sp)
   10f10:	07f12423          	sw	t6,104(sp)
   10f14:	06512223          	sw	t0,100(sp)
   10f18:	07112023          	sw	a7,96(sp)
   10f1c:	05c12e23          	sw	t3,92(sp)
   10f20:	0a512023          	sw	t0,160(sp)
   10f24:	04512c23          	sw	t0,88(sp)
   10f28:	0bf12223          	sw	t6,164(sp)
   10f2c:	05f12a23          	sw	t6,84(sp)
   10f30:	0be12423          	sw	t5,168(sp)
   10f34:	05e12823          	sw	t5,80(sp)
   10f38:	0b512623          	sw	s5,172(sp)
   10f3c:	08012823          	sw	zero,144(sp)
   10f40:	08012a23          	sw	zero,148(sp)
   10f44:	08012c23          	sw	zero,152(sp)
   10f48:	08012e23          	sw	zero,156(sp)
   10f4c:	7ec0c0ef          	jal	ra,1d738 <__eqtf2>
   10f50:	05012683          	lw	a3,80(sp)
   10f54:	05412603          	lw	a2,84(sp)
   10f58:	05812803          	lw	a6,88(sp)
   10f5c:	05c12e03          	lw	t3,92(sp)
   10f60:	06012883          	lw	a7,96(sp)
   10f64:	06412283          	lw	t0,100(sp)
   10f68:	06812f83          	lw	t6,104(sp)
   10f6c:	06c12f03          	lw	t5,108(sp)
   10f70:	ea0512e3          	bnez	a0,10e14 <_vfprintf_r+0x82c>
   10f74:	3ffe0cb7          	lui	s9,0x3ffe0
   10f78:	09010593          	addi	a1,sp,144
   10f7c:	0a010513          	addi	a0,sp,160
   10f80:	05112823          	sw	a7,80(sp)
   10f84:	0a512023          	sw	t0,160(sp)
   10f88:	04512e23          	sw	t0,92(sp)
   10f8c:	0bf12223          	sw	t6,164(sp)
   10f90:	05f12c23          	sw	t6,88(sp)
   10f94:	0be12423          	sw	t5,168(sp)
   10f98:	05e12a23          	sw	t5,84(sp)
   10f9c:	0b512623          	sw	s5,172(sp)
   10fa0:	08012823          	sw	zero,144(sp)
   10fa4:	08012a23          	sw	zero,148(sp)
   10fa8:	08012c23          	sw	zero,152(sp)
   10fac:	09912e23          	sw	s9,156(sp)
   10fb0:	0550c0ef          	jal	ra,1d804 <__getf2>
   10fb4:	05012883          	lw	a7,80(sp)
   10fb8:	04a04663          	bgtz	a0,11004 <_vfprintf_r+0xa1c>
   10fbc:	05c12283          	lw	t0,92(sp)
   10fc0:	05812f83          	lw	t6,88(sp)
   10fc4:	05412f03          	lw	t5,84(sp)
   10fc8:	09010593          	addi	a1,sp,144
   10fcc:	0a010513          	addi	a0,sp,160
   10fd0:	0a512023          	sw	t0,160(sp)
   10fd4:	0bf12223          	sw	t6,164(sp)
   10fd8:	0be12423          	sw	t5,168(sp)
   10fdc:	0b512623          	sw	s5,172(sp)
   10fe0:	08012823          	sw	zero,144(sp)
   10fe4:	08012a23          	sw	zero,148(sp)
   10fe8:	08012c23          	sw	zero,152(sp)
   10fec:	09912e23          	sw	s9,156(sp)
   10ff0:	7480c0ef          	jal	ra,1d738 <__eqtf2>
   10ff4:	05012883          	lw	a7,80(sp)
   10ff8:	1a051263          	bnez	a0,1119c <_vfprintf_r+0xbb4>
   10ffc:	001a7a13          	andi	s4,s4,1
   11000:	180a0e63          	beqz	s4,1119c <_vfprintf_r+0xbb4>
   11004:	00fc4603          	lbu	a2,15(s8)
   11008:	0db12623          	sw	s11,204(sp)
   1100c:	03000593          	li	a1,48
   11010:	0cc12683          	lw	a3,204(sp)
   11014:	fff68793          	addi	a5,a3,-1
   11018:	0cf12623          	sw	a5,204(sp)
   1101c:	fff6c783          	lbu	a5,-1(a3)
   11020:	14c78a63          	beq	a5,a2,11174 <_vfprintf_r+0xb8c>
   11024:	03900613          	li	a2,57
   11028:	14c79a63          	bne	a5,a2,1117c <_vfprintf_r+0xb94>
   1102c:	00ac4783          	lbu	a5,10(s8)
   11030:	fef68fa3          	sb	a5,-1(a3)
   11034:	000d8a13          	mv	s4,s11
   11038:	04700713          	li	a4,71
   1103c:	409a0a33          	sub	s4,s4,s1
   11040:	0bc12c83          	lw	s9,188(sp)
   11044:	2aeb9863          	bne	s7,a4,112f4 <_vfprintf_r+0xd0c>
   11048:	ffd00713          	li	a4,-3
   1104c:	00ecc463          	blt	s9,a4,11054 <_vfprintf_r+0xa6c>
   11050:	339b5463          	ble	s9,s6,11378 <_vfprintf_r+0xd90>
   11054:	ffed0d13          	addi	s10,s10,-2
   11058:	fffc8693          	addi	a3,s9,-1 # 3ffdffff <__global_pointer$+0x3ffbce57>
   1105c:	0ad12e23          	sw	a3,188(sp)
   11060:	fdfd7613          	andi	a2,s10,-33
   11064:	04100513          	li	a0,65
   11068:	0ffd7713          	andi	a4,s10,255
   1106c:	00000593          	li	a1,0
   11070:	00a61863          	bne	a2,a0,11080 <_vfprintf_r+0xa98>
   11074:	00f70713          	addi	a4,a4,15
   11078:	0ff77713          	andi	a4,a4,255
   1107c:	00100593          	li	a1,1
   11080:	0ce10223          	sb	a4,196(sp)
   11084:	02b00793          	li	a5,43
   11088:	0006d863          	bgez	a3,11098 <_vfprintf_r+0xab0>
   1108c:	00100693          	li	a3,1
   11090:	419686b3          	sub	a3,a3,s9
   11094:	02d00793          	li	a5,45
   11098:	0cf102a3          	sb	a5,197(sp)
   1109c:	00900793          	li	a5,9
   110a0:	28d7de63          	ble	a3,a5,1133c <_vfprintf_r+0xd54>
   110a4:	0d310713          	addi	a4,sp,211
   110a8:	00070513          	mv	a0,a4
   110ac:	00a00593          	li	a1,10
   110b0:	00900813          	li	a6,9
   110b4:	02b6e7b3          	rem	a5,a3,a1
   110b8:	fff70613          	addi	a2,a4,-1
   110bc:	02b6c6b3          	div	a3,a3,a1
   110c0:	03078793          	addi	a5,a5,48 # 40030030 <__global_pointer$+0x4000ce88>
   110c4:	fef70fa3          	sb	a5,-1(a4)
   110c8:	24d84c63          	blt	a6,a3,11320 <_vfprintf_r+0xd38>
   110cc:	03068793          	addi	a5,a3,48
   110d0:	fef60fa3          	sb	a5,-1(a2)
   110d4:	ffe70713          	addi	a4,a4,-2
   110d8:	0c610613          	addi	a2,sp,198
   110dc:	24a76663          	bltu	a4,a0,11328 <_vfprintf_r+0xd40>
   110e0:	0c410793          	addi	a5,sp,196
   110e4:	40f607b3          	sub	a5,a2,a5
   110e8:	02f12e23          	sw	a5,60(sp)
   110ec:	01478b33          	add	s6,a5,s4
   110f0:	00100793          	li	a5,1
   110f4:	0147c663          	blt	a5,s4,11100 <_vfprintf_r+0xb18>
   110f8:	00147793          	andi	a5,s0,1
   110fc:	00078663          	beqz	a5,11108 <_vfprintf_r+0xb20>
   11100:	02012783          	lw	a5,32(sp)
   11104:	00fb0b33          	add	s6,s6,a5
   11108:	bff47413          	andi	s0,s0,-1025
   1110c:	10046793          	ori	a5,s0,256
   11110:	02f12623          	sw	a5,44(sp)
   11114:	00000c13          	li	s8,0
   11118:	00000b93          	li	s7,0
   1111c:	00000c93          	li	s9,0
   11120:	04412783          	lw	a5,68(sp)
   11124:	00078663          	beqz	a5,11130 <_vfprintf_r+0xb48>
   11128:	02d00713          	li	a4,45
   1112c:	0ae10ba3          	sb	a4,183(sp)
   11130:	02c12403          	lw	s0,44(sp)
   11134:	00000a93          	li	s5,0
   11138:	4900006f          	j	115c8 <_vfprintf_r+0xfe0>
   1113c:	00012623          	sw	zero,12(sp)
   11140:	13c10493          	addi	s1,sp,316
   11144:	ba5ff06f          	j	10ce8 <_vfprintf_r+0x700>
   11148:	00a12623          	sw	a0,12(sp)
   1114c:	b9dff06f          	j	10ce8 <_vfprintf_r+0x700>
   11150:	00012623          	sw	zero,12(sp)
   11154:	00600b13          	li	s6,6
   11158:	b91ff06f          	j	10ce8 <_vfprintf_r+0x700>
   1115c:	01612623          	sw	s6,12(sp)
   11160:	00100b13          	li	s6,1
   11164:	b85ff06f          	j	10ce8 <_vfprintf_r+0x700>
   11168:	00021c37          	lui	s8,0x21
   1116c:	a6cc0c13          	addi	s8,s8,-1428 # 20a6c <zeroes.4405+0x34>
   11170:	c9dff06f          	j	10e0c <_vfprintf_r+0x824>
   11174:	feb68fa3          	sb	a1,-1(a3)
   11178:	e99ff06f          	j	11010 <_vfprintf_r+0xa28>
   1117c:	00178793          	addi	a5,a5,1
   11180:	0ff7f793          	andi	a5,a5,255
   11184:	eadff06f          	j	11030 <_vfprintf_r+0xa48>
   11188:	001a0a13          	addi	s4,s4,1
   1118c:	feea0fa3          	sb	a4,-1(s4)
   11190:	414a87b3          	sub	a5,s5,s4
   11194:	fe07dae3          	bgez	a5,11188 <_vfprintf_r+0xba0>
   11198:	ea1ff06f          	j	11038 <_vfprintf_r+0xa50>
   1119c:	04812783          	lw	a5,72(sp)
   111a0:	000d8a13          	mv	s4,s11
   111a4:	03000713          	li	a4,48
   111a8:	00fd8ab3          	add	s5,s11,a5
   111ac:	fe5ff06f          	j	11190 <_vfprintf_r+0xba8>
   111b0:	04600793          	li	a5,70
   111b4:	00fb8e63          	beq	s7,a5,111d0 <_vfprintf_r+0xbe8>
   111b8:	04500793          	li	a5,69
   111bc:	001b0a93          	addi	s5,s6,1
   111c0:	00fb8463          	beq	s7,a5,111c8 <_vfprintf_r+0xbe0>
   111c4:	000b0a93          	mv	s5,s6
   111c8:	00200613          	li	a2,2
   111cc:	00c0006f          	j	111d8 <_vfprintf_r+0xbf0>
   111d0:	000b0a93          	mv	s5,s6
   111d4:	00300613          	li	a2,3
   111d8:	0c010793          	addi	a5,sp,192
   111dc:	0cc10813          	addi	a6,sp,204
   111e0:	0bc10713          	addi	a4,sp,188
   111e4:	000a8693          	mv	a3,s5
   111e8:	0a010593          	addi	a1,sp,160
   111ec:	00098513          	mv	a0,s3
   111f0:	05112823          	sw	a7,80(sp)
   111f4:	0bc12023          	sw	t3,160(sp)
   111f8:	05c12423          	sw	t3,72(sp)
   111fc:	0bb12223          	sw	s11,164(sp)
   11200:	0b912423          	sw	s9,168(sp)
   11204:	0b412623          	sw	s4,172(sp)
   11208:	0c9030ef          	jal	ra,14ad0 <_ldtoa_r>
   1120c:	04700793          	li	a5,71
   11210:	00050493          	mv	s1,a0
   11214:	04812e03          	lw	t3,72(sp)
   11218:	05012883          	lw	a7,80(sp)
   1121c:	00fb9663          	bne	s7,a5,11228 <_vfprintf_r+0xc40>
   11220:	00147793          	andi	a5,s0,1
   11224:	0a078863          	beqz	a5,112d4 <_vfprintf_r+0xcec>
   11228:	04600793          	li	a5,70
   1122c:	01548c33          	add	s8,s1,s5
   11230:	06fb9263          	bne	s7,a5,11294 <_vfprintf_r+0xcac>
   11234:	0004c703          	lbu	a4,0(s1)
   11238:	03000793          	li	a5,48
   1123c:	04f71863          	bne	a4,a5,1128c <_vfprintf_r+0xca4>
   11240:	09010593          	addi	a1,sp,144
   11244:	0a010513          	addi	a0,sp,160
   11248:	05112823          	sw	a7,80(sp)
   1124c:	0bc12023          	sw	t3,160(sp)
   11250:	05c12423          	sw	t3,72(sp)
   11254:	0bb12223          	sw	s11,164(sp)
   11258:	0b912423          	sw	s9,168(sp)
   1125c:	0b412623          	sw	s4,172(sp)
   11260:	08012823          	sw	zero,144(sp)
   11264:	08012a23          	sw	zero,148(sp)
   11268:	08012c23          	sw	zero,152(sp)
   1126c:	08012e23          	sw	zero,156(sp)
   11270:	4c80c0ef          	jal	ra,1d738 <__eqtf2>
   11274:	04812e03          	lw	t3,72(sp)
   11278:	05012883          	lw	a7,80(sp)
   1127c:	00050863          	beqz	a0,1128c <_vfprintf_r+0xca4>
   11280:	00100793          	li	a5,1
   11284:	41578ab3          	sub	s5,a5,s5
   11288:	0b512e23          	sw	s5,188(sp)
   1128c:	0bc12783          	lw	a5,188(sp)
   11290:	00fc0c33          	add	s8,s8,a5
   11294:	09010593          	addi	a1,sp,144
   11298:	0a010513          	addi	a0,sp,160
   1129c:	05112423          	sw	a7,72(sp)
   112a0:	0bc12023          	sw	t3,160(sp)
   112a4:	0bb12223          	sw	s11,164(sp)
   112a8:	0b912423          	sw	s9,168(sp)
   112ac:	0b412623          	sw	s4,172(sp)
   112b0:	08012823          	sw	zero,144(sp)
   112b4:	08012a23          	sw	zero,148(sp)
   112b8:	08012c23          	sw	zero,152(sp)
   112bc:	08012e23          	sw	zero,156(sp)
   112c0:	4780c0ef          	jal	ra,1d738 <__eqtf2>
   112c4:	04812883          	lw	a7,72(sp)
   112c8:	03000713          	li	a4,48
   112cc:	00051e63          	bnez	a0,112e8 <_vfprintf_r+0xd00>
   112d0:	0d812623          	sw	s8,204(sp)
   112d4:	0cc12a03          	lw	s4,204(sp)
   112d8:	d61ff06f          	j	11038 <_vfprintf_r+0xa50>
   112dc:	00178693          	addi	a3,a5,1
   112e0:	0cd12623          	sw	a3,204(sp)
   112e4:	00e78023          	sb	a4,0(a5)
   112e8:	0cc12783          	lw	a5,204(sp)
   112ec:	ff87e8e3          	bltu	a5,s8,112dc <_vfprintf_r+0xcf4>
   112f0:	fe5ff06f          	j	112d4 <_vfprintf_r+0xcec>
   112f4:	04600713          	li	a4,70
   112f8:	d6eb90e3          	bne	s7,a4,11058 <_vfprintf_r+0xa70>
   112fc:	07905263          	blez	s9,11360 <_vfprintf_r+0xd78>
   11300:	000b1663          	bnez	s6,1130c <_vfprintf_r+0xd24>
   11304:	00147713          	andi	a4,s0,1
   11308:	0c070263          	beqz	a4,113cc <_vfprintf_r+0xde4>
   1130c:	02012783          	lw	a5,32(sp)
   11310:	00fc8733          	add	a4,s9,a5
   11314:	00eb0b33          	add	s6,s6,a4
   11318:	06600d13          	li	s10,102
   1131c:	0940006f          	j	113b0 <_vfprintf_r+0xdc8>
   11320:	00060713          	mv	a4,a2
   11324:	d91ff06f          	j	110b4 <_vfprintf_r+0xacc>
   11328:	00170713          	addi	a4,a4,1
   1132c:	fff74783          	lbu	a5,-1(a4)
   11330:	00160613          	addi	a2,a2,1
   11334:	fef60fa3          	sb	a5,-1(a2)
   11338:	da5ff06f          	j	110dc <_vfprintf_r+0xaf4>
   1133c:	0c610713          	addi	a4,sp,198
   11340:	00059863          	bnez	a1,11350 <_vfprintf_r+0xd68>
   11344:	03000793          	li	a5,48
   11348:	0cf10323          	sb	a5,198(sp)
   1134c:	0c710713          	addi	a4,sp,199
   11350:	03068793          	addi	a5,a3,48
   11354:	00170613          	addi	a2,a4,1
   11358:	00f70023          	sb	a5,0(a4)
   1135c:	d85ff06f          	j	110e0 <_vfprintf_r+0xaf8>
   11360:	000b1663          	bnez	s6,1136c <_vfprintf_r+0xd84>
   11364:	00147713          	andi	a4,s0,1
   11368:	06070663          	beqz	a4,113d4 <_vfprintf_r+0xdec>
   1136c:	02012783          	lw	a5,32(sp)
   11370:	00178713          	addi	a4,a5,1
   11374:	fa1ff06f          	j	11314 <_vfprintf_r+0xd2c>
   11378:	034cc063          	blt	s9,s4,11398 <_vfprintf_r+0xdb0>
   1137c:	00147713          	andi	a4,s0,1
   11380:	000c8b13          	mv	s6,s9
   11384:	00070663          	beqz	a4,11390 <_vfprintf_r+0xda8>
   11388:	02012783          	lw	a5,32(sp)
   1138c:	00fc8b33          	add	s6,s9,a5
   11390:	06700d13          	li	s10,103
   11394:	01c0006f          	j	113b0 <_vfprintf_r+0xdc8>
   11398:	02012783          	lw	a5,32(sp)
   1139c:	06700d13          	li	s10,103
   113a0:	00fa0b33          	add	s6,s4,a5
   113a4:	01904663          	bgtz	s9,113b0 <_vfprintf_r+0xdc8>
   113a8:	419b0333          	sub	t1,s6,s9
   113ac:	00130b13          	addi	s6,t1,1 # 1 <_start-0x10073>
   113b0:	40047b93          	andi	s7,s0,1024
   113b4:	00000c13          	li	s8,0
   113b8:	d60b84e3          	beqz	s7,11120 <_vfprintf_r+0xb38>
   113bc:	00000b93          	li	s7,0
   113c0:	d79050e3          	blez	s9,11120 <_vfprintf_r+0xb38>
   113c4:	0ff00693          	li	a3,255
   113c8:	0380006f          	j	11400 <_vfprintf_r+0xe18>
   113cc:	000c8b13          	mv	s6,s9
   113d0:	f49ff06f          	j	11318 <_vfprintf_r+0xd30>
   113d4:	06600d13          	li	s10,102
   113d8:	00100b13          	li	s6,1
   113dc:	fd5ff06f          	j	113b0 <_vfprintf_r+0xdc8>
   113e0:	03975663          	ble	s9,a4,1140c <_vfprintf_r+0xe24>
   113e4:	01012783          	lw	a5,16(sp)
   113e8:	40ec8cb3          	sub	s9,s9,a4
   113ec:	0017c703          	lbu	a4,1(a5)
   113f0:	02070863          	beqz	a4,11420 <_vfprintf_r+0xe38>
   113f4:	00178793          	addi	a5,a5,1
   113f8:	001b8b93          	addi	s7,s7,1
   113fc:	00f12823          	sw	a5,16(sp)
   11400:	01012783          	lw	a5,16(sp)
   11404:	0007c703          	lbu	a4,0(a5)
   11408:	fcd71ce3          	bne	a4,a3,113e0 <_vfprintf_r+0xdf8>
   1140c:	03012783          	lw	a5,48(sp)
   11410:	018b8733          	add	a4,s7,s8
   11414:	02f70733          	mul	a4,a4,a5
   11418:	01670b33          	add	s6,a4,s6
   1141c:	d05ff06f          	j	11120 <_vfprintf_r+0xb38>
   11420:	001c0c13          	addi	s8,s8,1
   11424:	fddff06f          	j	11400 <_vfprintf_r+0xe18>
   11428:	004a8713          	addi	a4,s5,4
   1142c:	00e12c23          	sw	a4,24(sp)
   11430:	02047713          	andi	a4,s0,32
   11434:	000aa783          	lw	a5,0(s5)
   11438:	02070063          	beqz	a4,11458 <_vfprintf_r+0xe70>
   1143c:	02412703          	lw	a4,36(sp)
   11440:	00e7a023          	sw	a4,0(a5)
   11444:	41f75713          	srai	a4,a4,0x1f
   11448:	00e7a223          	sw	a4,4(a5)
   1144c:	01812a83          	lw	s5,24(sp)
   11450:	01c12483          	lw	s1,28(sp)
   11454:	b28ff06f          	j	1077c <_vfprintf_r+0x194>
   11458:	01047713          	andi	a4,s0,16
   1145c:	00070863          	beqz	a4,1146c <_vfprintf_r+0xe84>
   11460:	02412703          	lw	a4,36(sp)
   11464:	00e7a023          	sw	a4,0(a5)
   11468:	fe5ff06f          	j	1144c <_vfprintf_r+0xe64>
   1146c:	04047713          	andi	a4,s0,64
   11470:	00070863          	beqz	a4,11480 <_vfprintf_r+0xe98>
   11474:	02415703          	lhu	a4,36(sp)
   11478:	00e79023          	sh	a4,0(a5)
   1147c:	fd1ff06f          	j	1144c <_vfprintf_r+0xe64>
   11480:	20047413          	andi	s0,s0,512
   11484:	fc040ee3          	beqz	s0,11460 <_vfprintf_r+0xe78>
   11488:	02414703          	lbu	a4,36(sp)
   1148c:	00e78023          	sb	a4,0(a5)
   11490:	fbdff06f          	j	1144c <_vfprintf_r+0xe64>
   11494:	01046413          	ori	s0,s0,16
   11498:	02047793          	andi	a5,s0,32
   1149c:	04078863          	beqz	a5,114ec <_vfprintf_r+0xf04>
   114a0:	007a8a93          	addi	s5,s5,7
   114a4:	ff8afa93          	andi	s5,s5,-8
   114a8:	000aac83          	lw	s9,0(s5)
   114ac:	004aac03          	lw	s8,4(s5)
   114b0:	008a8793          	addi	a5,s5,8
   114b4:	00f12c23          	sw	a5,24(sp)
   114b8:	bff47413          	andi	s0,s0,-1025
   114bc:	00000793          	li	a5,0
   114c0:	0a010ba3          	sb	zero,183(sp)
   114c4:	fff00713          	li	a4,-1
   114c8:	42eb0863          	beq	s6,a4,118f8 <_vfprintf_r+0x1310>
   114cc:	00040713          	mv	a4,s0
   114d0:	018ce6b3          	or	a3,s9,s8
   114d4:	f7f47413          	andi	s0,s0,-129
   114d8:	42069063          	bnez	a3,118f8 <_vfprintf_r+0x1310>
   114dc:	580b0e63          	beqz	s6,11a78 <_vfprintf_r+0x1490>
   114e0:	00100713          	li	a4,1
   114e4:	40e79e63          	bne	a5,a4,11900 <_vfprintf_r+0x1318>
   114e8:	dd4ff06f          	j	10abc <_vfprintf_r+0x4d4>
   114ec:	004a8793          	addi	a5,s5,4
   114f0:	00f12c23          	sw	a5,24(sp)
   114f4:	01047793          	andi	a5,s0,16
   114f8:	00078663          	beqz	a5,11504 <_vfprintf_r+0xf1c>
   114fc:	000aac83          	lw	s9,0(s5)
   11500:	0100006f          	j	11510 <_vfprintf_r+0xf28>
   11504:	04047793          	andi	a5,s0,64
   11508:	00078863          	beqz	a5,11518 <_vfprintf_r+0xf30>
   1150c:	000adc83          	lhu	s9,0(s5)
   11510:	00000c13          	li	s8,0
   11514:	fa5ff06f          	j	114b8 <_vfprintf_r+0xed0>
   11518:	20047793          	andi	a5,s0,512
   1151c:	fe0780e3          	beqz	a5,114fc <_vfprintf_r+0xf14>
   11520:	000acc83          	lbu	s9,0(s5)
   11524:	fedff06f          	j	11510 <_vfprintf_r+0xf28>
   11528:	004a8793          	addi	a5,s5,4
   1152c:	00f12c23          	sw	a5,24(sp)
   11530:	ffff87b7          	lui	a5,0xffff8
   11534:	8307c793          	xori	a5,a5,-2000
   11538:	0af11c23          	sh	a5,184(sp)
   1153c:	000217b7          	lui	a5,0x21
   11540:	a5878793          	addi	a5,a5,-1448 # 20a58 <zeroes.4405+0x20>
   11544:	04f12023          	sw	a5,64(sp)
   11548:	000aac83          	lw	s9,0(s5)
   1154c:	00000c13          	li	s8,0
   11550:	00246413          	ori	s0,s0,2
   11554:	00200793          	li	a5,2
   11558:	07800d13          	li	s10,120
   1155c:	f65ff06f          	j	114c0 <_vfprintf_r+0xed8>
   11560:	004a8793          	addi	a5,s5,4
   11564:	00f12c23          	sw	a5,24(sp)
   11568:	0a010ba3          	sb	zero,183(sp)
   1156c:	fff00793          	li	a5,-1
   11570:	03112623          	sw	a7,44(sp)
   11574:	000aa483          	lw	s1,0(s5)
   11578:	02fb0663          	beq	s6,a5,115a4 <_vfprintf_r+0xfbc>
   1157c:	000b0613          	mv	a2,s6
   11580:	00000593          	li	a1,0
   11584:	00048513          	mv	a0,s1
   11588:	345040ef          	jal	ra,160cc <memchr>
   1158c:	00a12623          	sw	a0,12(sp)
   11590:	02c12883          	lw	a7,44(sp)
   11594:	e2050c63          	beqz	a0,10bcc <_vfprintf_r+0x5e4>
   11598:	40950b33          	sub	s6,a0,s1
   1159c:	00012623          	sw	zero,12(sp)
   115a0:	e2cff06f          	j	10bcc <_vfprintf_r+0x5e4>
   115a4:	00048513          	mv	a0,s1
   115a8:	824ff0ef          	jal	ra,105cc <strlen>
   115ac:	02c12883          	lw	a7,44(sp)
   115b0:	00050b13          	mv	s6,a0
   115b4:	00012623          	sw	zero,12(sp)
   115b8:	00000a93          	li	s5,0
   115bc:	00000c13          	li	s8,0
   115c0:	00000b93          	li	s7,0
   115c4:	00000c93          	li	s9,0
   115c8:	03512623          	sw	s5,44(sp)
   115cc:	016ad463          	ble	s6,s5,115d4 <_vfprintf_r+0xfec>
   115d0:	03612623          	sw	s6,44(sp)
   115d4:	0b714703          	lbu	a4,183(sp)
   115d8:	00070863          	beqz	a4,115e8 <_vfprintf_r+0x1000>
   115dc:	02c12783          	lw	a5,44(sp)
   115e0:	00178793          	addi	a5,a5,1
   115e4:	02f12623          	sw	a5,44(sp)
   115e8:	00247d93          	andi	s11,s0,2
   115ec:	000d8863          	beqz	s11,115fc <_vfprintf_r+0x1014>
   115f0:	02c12783          	lw	a5,44(sp)
   115f4:	00278793          	addi	a5,a5,2
   115f8:	02f12623          	sw	a5,44(sp)
   115fc:	08447793          	andi	a5,s0,132
   11600:	04f12223          	sw	a5,68(sp)
   11604:	06079863          	bnez	a5,11674 <_vfprintf_r+0x108c>
   11608:	02812783          	lw	a5,40(sp)
   1160c:	02c12703          	lw	a4,44(sp)
   11610:	40e78733          	sub	a4,a5,a4
   11614:	06e05063          	blez	a4,11674 <_vfprintf_r+0x108c>
   11618:	00021e37          	lui	t3,0x21
   1161c:	01000e93          	li	t4,16
   11620:	a28e0e13          	addi	t3,t3,-1496 # 20a28 <blanks.4404>
   11624:	00700f13          	li	t5,7
   11628:	0d812683          	lw	a3,216(sp)
   1162c:	01c8a023          	sw	t3,0(a7)
   11630:	0dc12603          	lw	a2,220(sp)
   11634:	00168693          	addi	a3,a3,1
   11638:	00888593          	addi	a1,a7,8
   1163c:	46eec663          	blt	t4,a4,11aa8 <_vfprintf_r+0x14c0>
   11640:	00e8a223          	sw	a4,4(a7)
   11644:	00c70733          	add	a4,a4,a2
   11648:	0ce12e23          	sw	a4,220(sp)
   1164c:	0cd12c23          	sw	a3,216(sp)
   11650:	00700713          	li	a4,7
   11654:	00058893          	mv	a7,a1
   11658:	00d75e63          	ble	a3,a4,11674 <_vfprintf_r+0x108c>
   1165c:	0d410613          	addi	a2,sp,212
   11660:	00090593          	mv	a1,s2
   11664:	00098513          	mv	a0,s3
   11668:	3d8080ef          	jal	ra,19a40 <__sprint_r>
   1166c:	680518e3          	bnez	a0,124fc <_vfprintf_r+0x1f14>
   11670:	0fc10893          	addi	a7,sp,252
   11674:	0b714703          	lbu	a4,183(sp)
   11678:	04070863          	beqz	a4,116c8 <_vfprintf_r+0x10e0>
   1167c:	0b710713          	addi	a4,sp,183
   11680:	00e8a023          	sw	a4,0(a7)
   11684:	00100713          	li	a4,1
   11688:	00e8a223          	sw	a4,4(a7)
   1168c:	0dc12703          	lw	a4,220(sp)
   11690:	00700693          	li	a3,7
   11694:	00888893          	addi	a7,a7,8
   11698:	00170713          	addi	a4,a4,1
   1169c:	0ce12e23          	sw	a4,220(sp)
   116a0:	0d812703          	lw	a4,216(sp)
   116a4:	00170713          	addi	a4,a4,1
   116a8:	0ce12c23          	sw	a4,216(sp)
   116ac:	00e6de63          	ble	a4,a3,116c8 <_vfprintf_r+0x10e0>
   116b0:	0d410613          	addi	a2,sp,212
   116b4:	00090593          	mv	a1,s2
   116b8:	00098513          	mv	a0,s3
   116bc:	384080ef          	jal	ra,19a40 <__sprint_r>
   116c0:	62051ee3          	bnez	a0,124fc <_vfprintf_r+0x1f14>
   116c4:	0fc10893          	addi	a7,sp,252
   116c8:	040d8863          	beqz	s11,11718 <_vfprintf_r+0x1130>
   116cc:	0b810713          	addi	a4,sp,184
   116d0:	00e8a023          	sw	a4,0(a7)
   116d4:	00200713          	li	a4,2
   116d8:	00e8a223          	sw	a4,4(a7)
   116dc:	0dc12703          	lw	a4,220(sp)
   116e0:	00700693          	li	a3,7
   116e4:	00888893          	addi	a7,a7,8
   116e8:	00270713          	addi	a4,a4,2
   116ec:	0ce12e23          	sw	a4,220(sp)
   116f0:	0d812703          	lw	a4,216(sp)
   116f4:	00170713          	addi	a4,a4,1
   116f8:	0ce12c23          	sw	a4,216(sp)
   116fc:	00e6de63          	ble	a4,a3,11718 <_vfprintf_r+0x1130>
   11700:	0d410613          	addi	a2,sp,212
   11704:	00090593          	mv	a1,s2
   11708:	00098513          	mv	a0,s3
   1170c:	334080ef          	jal	ra,19a40 <__sprint_r>
   11710:	5e0516e3          	bnez	a0,124fc <_vfprintf_r+0x1f14>
   11714:	0fc10893          	addi	a7,sp,252
   11718:	04412783          	lw	a5,68(sp)
   1171c:	08000713          	li	a4,128
   11720:	06e79663          	bne	a5,a4,1178c <_vfprintf_r+0x11a4>
   11724:	02812783          	lw	a5,40(sp)
   11728:	02c12703          	lw	a4,44(sp)
   1172c:	40e78db3          	sub	s11,a5,a4
   11730:	05b05e63          	blez	s11,1178c <_vfprintf_r+0x11a4>
   11734:	01000793          	li	a5,16
   11738:	00700e13          	li	t3,7
   1173c:	0d812703          	lw	a4,216(sp)
   11740:	0dc12683          	lw	a3,220(sp)
   11744:	00888613          	addi	a2,a7,8
   11748:	00170713          	addi	a4,a4,1
   1174c:	3bb7ca63          	blt	a5,s11,11b00 <_vfprintf_r+0x1518>
   11750:	01412783          	lw	a5,20(sp)
   11754:	01b8a223          	sw	s11,4(a7)
   11758:	00dd8db3          	add	s11,s11,a3
   1175c:	00f8a023          	sw	a5,0(a7)
   11760:	0db12e23          	sw	s11,220(sp)
   11764:	0ce12c23          	sw	a4,216(sp)
   11768:	00700693          	li	a3,7
   1176c:	00060893          	mv	a7,a2
   11770:	00e6de63          	ble	a4,a3,1178c <_vfprintf_r+0x11a4>
   11774:	0d410613          	addi	a2,sp,212
   11778:	00090593          	mv	a1,s2
   1177c:	00098513          	mv	a0,s3
   11780:	2c0080ef          	jal	ra,19a40 <__sprint_r>
   11784:	56051ce3          	bnez	a0,124fc <_vfprintf_r+0x1f14>
   11788:	0fc10893          	addi	a7,sp,252
   1178c:	416a8ab3          	sub	s5,s5,s6
   11790:	05505e63          	blez	s5,117ec <_vfprintf_r+0x1204>
   11794:	01000d93          	li	s11,16
   11798:	00700813          	li	a6,7
   1179c:	01412783          	lw	a5,20(sp)
   117a0:	0d812703          	lw	a4,216(sp)
   117a4:	0dc12683          	lw	a3,220(sp)
   117a8:	00f8a023          	sw	a5,0(a7)
   117ac:	00170713          	addi	a4,a4,1
   117b0:	00888613          	addi	a2,a7,8
   117b4:	395dce63          	blt	s11,s5,11b50 <_vfprintf_r+0x1568>
   117b8:	0158a223          	sw	s5,4(a7)
   117bc:	00da8ab3          	add	s5,s5,a3
   117c0:	0d512e23          	sw	s5,220(sp)
   117c4:	0ce12c23          	sw	a4,216(sp)
   117c8:	00700693          	li	a3,7
   117cc:	00060893          	mv	a7,a2
   117d0:	00e6de63          	ble	a4,a3,117ec <_vfprintf_r+0x1204>
   117d4:	0d410613          	addi	a2,sp,212
   117d8:	00090593          	mv	a1,s2
   117dc:	00098513          	mv	a0,s3
   117e0:	260080ef          	jal	ra,19a40 <__sprint_r>
   117e4:	50051ce3          	bnez	a0,124fc <_vfprintf_r+0x1f14>
   117e8:	0fc10893          	addi	a7,sp,252
   117ec:	10047713          	andi	a4,s0,256
   117f0:	0dc12d83          	lw	s11,220(sp)
   117f4:	38071e63          	bnez	a4,11b90 <_vfprintf_r+0x15a8>
   117f8:	01bb0333          	add	t1,s6,s11
   117fc:	0098a023          	sw	s1,0(a7)
   11800:	0168a223          	sw	s6,4(a7)
   11804:	0c612e23          	sw	t1,220(sp)
   11808:	0d812783          	lw	a5,216(sp)
   1180c:	00700713          	li	a4,7
   11810:	00888893          	addi	a7,a7,8
   11814:	00178793          	addi	a5,a5,1
   11818:	0cf12c23          	sw	a5,216(sp)
   1181c:	4af75c63          	ble	a5,a4,11cd4 <_vfprintf_r+0x16ec>
   11820:	0d410613          	addi	a2,sp,212
   11824:	00090593          	mv	a1,s2
   11828:	00098513          	mv	a0,s3
   1182c:	214080ef          	jal	ra,19a40 <__sprint_r>
   11830:	4c0516e3          	bnez	a0,124fc <_vfprintf_r+0x1f14>
   11834:	0fc10893          	addi	a7,sp,252
   11838:	49c0006f          	j	11cd4 <_vfprintf_r+0x16ec>
   1183c:	01046413          	ori	s0,s0,16
   11840:	02047793          	andi	a5,s0,32
   11844:	02078263          	beqz	a5,11868 <_vfprintf_r+0x1280>
   11848:	007a8a93          	addi	s5,s5,7
   1184c:	ff8afa93          	andi	s5,s5,-8
   11850:	000aac83          	lw	s9,0(s5)
   11854:	004aac03          	lw	s8,4(s5)
   11858:	008a8793          	addi	a5,s5,8
   1185c:	00f12c23          	sw	a5,24(sp)
   11860:	00100793          	li	a5,1
   11864:	c5dff06f          	j	114c0 <_vfprintf_r+0xed8>
   11868:	004a8793          	addi	a5,s5,4
   1186c:	00f12c23          	sw	a5,24(sp)
   11870:	01047793          	andi	a5,s0,16
   11874:	00078663          	beqz	a5,11880 <_vfprintf_r+0x1298>
   11878:	000aac83          	lw	s9,0(s5)
   1187c:	0100006f          	j	1188c <_vfprintf_r+0x12a4>
   11880:	04047793          	andi	a5,s0,64
   11884:	00078863          	beqz	a5,11894 <_vfprintf_r+0x12ac>
   11888:	000adc83          	lhu	s9,0(s5)
   1188c:	00000c13          	li	s8,0
   11890:	fd1ff06f          	j	11860 <_vfprintf_r+0x1278>
   11894:	20047793          	andi	a5,s0,512
   11898:	fe0780e3          	beqz	a5,11878 <_vfprintf_r+0x1290>
   1189c:	000acc83          	lbu	s9,0(s5)
   118a0:	fedff06f          	j	1188c <_vfprintf_r+0x12a4>
   118a4:	000217b7          	lui	a5,0x21
   118a8:	a5878793          	addi	a5,a5,-1448 # 20a58 <zeroes.4405+0x20>
   118ac:	fb1fe06f          	j	1085c <_vfprintf_r+0x274>
   118b0:	004a8793          	addi	a5,s5,4
   118b4:	00f12c23          	sw	a5,24(sp)
   118b8:	01047793          	andi	a5,s0,16
   118bc:	00078663          	beqz	a5,118c8 <_vfprintf_r+0x12e0>
   118c0:	000aac83          	lw	s9,0(s5)
   118c4:	0100006f          	j	118d4 <_vfprintf_r+0x12ec>
   118c8:	04047793          	andi	a5,s0,64
   118cc:	00078863          	beqz	a5,118dc <_vfprintf_r+0x12f4>
   118d0:	000adc83          	lhu	s9,0(s5)
   118d4:	00000c13          	li	s8,0
   118d8:	fadfe06f          	j	10884 <_vfprintf_r+0x29c>
   118dc:	20047793          	andi	a5,s0,512
   118e0:	fe0780e3          	beqz	a5,118c0 <_vfprintf_r+0x12d8>
   118e4:	000acc83          	lbu	s9,0(s5)
   118e8:	fedff06f          	j	118d4 <_vfprintf_r+0x12ec>
   118ec:	00040713          	mv	a4,s0
   118f0:	00100793          	li	a5,1
   118f4:	bddff06f          	j	114d0 <_vfprintf_r+0xee8>
   118f8:	00100713          	li	a4,1
   118fc:	9ae78a63          	beq	a5,a4,10ab0 <_vfprintf_r+0x4c8>
   11900:	00200713          	li	a4,2
   11904:	12e78e63          	beq	a5,a4,11a40 <_vfprintf_r+0x1458>
   11908:	1a010793          	addi	a5,sp,416
   1190c:	01dc1693          	slli	a3,s8,0x1d
   11910:	007cf713          	andi	a4,s9,7
   11914:	003cdc93          	srli	s9,s9,0x3
   11918:	03070713          	addi	a4,a4,48
   1191c:	0196ecb3          	or	s9,a3,s9
   11920:	003c5c13          	srli	s8,s8,0x3
   11924:	fee78fa3          	sb	a4,-1(a5)
   11928:	018ce6b3          	or	a3,s9,s8
   1192c:	fff78493          	addi	s1,a5,-1
   11930:	02069e63          	bnez	a3,1196c <_vfprintf_r+0x1384>
   11934:	00147693          	andi	a3,s0,1
   11938:	00068a63          	beqz	a3,1194c <_vfprintf_r+0x1364>
   1193c:	03000693          	li	a3,48
   11940:	00d70663          	beq	a4,a3,1194c <_vfprintf_r+0x1364>
   11944:	fed48fa3          	sb	a3,-1(s1)
   11948:	ffe78493          	addi	s1,a5,-2
   1194c:	1a010793          	addi	a5,sp,416
   11950:	000b0a93          	mv	s5,s6
   11954:	00012623          	sw	zero,12(sp)
   11958:	40978b33          	sub	s6,a5,s1
   1195c:	00000c13          	li	s8,0
   11960:	00000b93          	li	s7,0
   11964:	00000c93          	li	s9,0
   11968:	c61ff06f          	j	115c8 <_vfprintf_r+0xfe0>
   1196c:	00048793          	mv	a5,s1
   11970:	f9dff06f          	j	1190c <_vfprintf_r+0x1324>
   11974:	00000a13          	li	s4,0
   11978:	1a010d93          	addi	s11,sp,416
   1197c:	40047a93          	andi	s5,s0,1024
   11980:	00900b93          	li	s7,9
   11984:	00a00613          	li	a2,10
   11988:	00000693          	li	a3,0
   1198c:	000c8513          	mv	a0,s9
   11990:	000c0593          	mv	a1,s8
   11994:	01112623          	sw	a7,12(sp)
   11998:	4dd0a0ef          	jal	ra,1c674 <__umoddi3>
   1199c:	03050513          	addi	a0,a0,48
   119a0:	fead8fa3          	sb	a0,-1(s11)
   119a4:	fffd8493          	addi	s1,s11,-1
   119a8:	001a0a13          	addi	s4,s4,1
   119ac:	00c12883          	lw	a7,12(sp)
   119b0:	040a8e63          	beqz	s5,11a0c <_vfprintf_r+0x1424>
   119b4:	01012783          	lw	a5,16(sp)
   119b8:	0007c783          	lbu	a5,0(a5)
   119bc:	04fa1863          	bne	s4,a5,11a0c <_vfprintf_r+0x1424>
   119c0:	0ff00793          	li	a5,255
   119c4:	04fa0463          	beq	s4,a5,11a0c <_vfprintf_r+0x1424>
   119c8:	000c1463          	bnez	s8,119d0 <_vfprintf_r+0x13e8>
   119cc:	059bf063          	bleu	s9,s7,11a0c <_vfprintf_r+0x1424>
   119d0:	03012783          	lw	a5,48(sp)
   119d4:	03812583          	lw	a1,56(sp)
   119d8:	01112623          	sw	a7,12(sp)
   119dc:	40f484b3          	sub	s1,s1,a5
   119e0:	00078613          	mv	a2,a5
   119e4:	00048513          	mv	a0,s1
   119e8:	0d4060ef          	jal	ra,17abc <strncpy>
   119ec:	01012783          	lw	a5,16(sp)
   119f0:	00000a13          	li	s4,0
   119f4:	00c12883          	lw	a7,12(sp)
   119f8:	0017c783          	lbu	a5,1(a5)
   119fc:	00078863          	beqz	a5,11a0c <_vfprintf_r+0x1424>
   11a00:	01012783          	lw	a5,16(sp)
   11a04:	00178793          	addi	a5,a5,1
   11a08:	00f12823          	sw	a5,16(sp)
   11a0c:	000c8513          	mv	a0,s9
   11a10:	000c0593          	mv	a1,s8
   11a14:	00a00613          	li	a2,10
   11a18:	00000693          	li	a3,0
   11a1c:	01112623          	sw	a7,12(sp)
   11a20:	0210a0ef          	jal	ra,1c240 <__udivdi3>
   11a24:	00058c13          	mv	s8,a1
   11a28:	00a5e5b3          	or	a1,a1,a0
   11a2c:	00050c93          	mv	s9,a0
   11a30:	00c12883          	lw	a7,12(sp)
   11a34:	f0058ce3          	beqz	a1,1194c <_vfprintf_r+0x1364>
   11a38:	00048d93          	mv	s11,s1
   11a3c:	f49ff06f          	j	11984 <_vfprintf_r+0x139c>
   11a40:	1a010493          	addi	s1,sp,416
   11a44:	04012703          	lw	a4,64(sp)
   11a48:	00fcf793          	andi	a5,s9,15
   11a4c:	fff48493          	addi	s1,s1,-1
   11a50:	00f707b3          	add	a5,a4,a5
   11a54:	0007c783          	lbu	a5,0(a5)
   11a58:	004cdc93          	srli	s9,s9,0x4
   11a5c:	00f48023          	sb	a5,0(s1)
   11a60:	01cc1793          	slli	a5,s8,0x1c
   11a64:	0197ecb3          	or	s9,a5,s9
   11a68:	004c5c13          	srli	s8,s8,0x4
   11a6c:	018ce7b3          	or	a5,s9,s8
   11a70:	fc079ae3          	bnez	a5,11a44 <_vfprintf_r+0x145c>
   11a74:	ed9ff06f          	j	1194c <_vfprintf_r+0x1364>
   11a78:	1a010493          	addi	s1,sp,416
   11a7c:	ec0798e3          	bnez	a5,1194c <_vfprintf_r+0x1364>
   11a80:	00177713          	andi	a4,a4,1
   11a84:	ec0704e3          	beqz	a4,1194c <_vfprintf_r+0x1364>
   11a88:	03000793          	li	a5,48
   11a8c:	18f10fa3          	sb	a5,415(sp)
   11a90:	834ff06f          	j	10ac4 <_vfprintf_r+0x4dc>
   11a94:	2c0d06e3          	beqz	s10,12560 <_vfprintf_r+0x1f78>
   11a98:	13a10e23          	sb	s10,316(sp)
   11a9c:	0a010ba3          	sb	zero,183(sp)
   11aa0:	01512c23          	sw	s5,24(sp)
   11aa4:	fa5fe06f          	j	10a48 <_vfprintf_r+0x460>
   11aa8:	01060613          	addi	a2,a2,16
   11aac:	01d8a223          	sw	t4,4(a7)
   11ab0:	0cc12e23          	sw	a2,220(sp)
   11ab4:	0cd12c23          	sw	a3,216(sp)
   11ab8:	02df5e63          	ble	a3,t5,11af4 <_vfprintf_r+0x150c>
   11abc:	0d410613          	addi	a2,sp,212
   11ac0:	00090593          	mv	a1,s2
   11ac4:	00098513          	mv	a0,s3
   11ac8:	05e12c23          	sw	t5,88(sp)
   11acc:	05c12a23          	sw	t3,84(sp)
   11ad0:	05d12823          	sw	t4,80(sp)
   11ad4:	04e12423          	sw	a4,72(sp)
   11ad8:	769070ef          	jal	ra,19a40 <__sprint_r>
   11adc:	220510e3          	bnez	a0,124fc <_vfprintf_r+0x1f14>
   11ae0:	05812f03          	lw	t5,88(sp)
   11ae4:	05412e03          	lw	t3,84(sp)
   11ae8:	05012e83          	lw	t4,80(sp)
   11aec:	04812703          	lw	a4,72(sp)
   11af0:	0fc10593          	addi	a1,sp,252
   11af4:	ff070713          	addi	a4,a4,-16
   11af8:	00058893          	mv	a7,a1
   11afc:	b2dff06f          	j	11628 <_vfprintf_r+0x1040>
   11b00:	01412583          	lw	a1,20(sp)
   11b04:	01068693          	addi	a3,a3,16
   11b08:	00f8a223          	sw	a5,4(a7)
   11b0c:	00b8a023          	sw	a1,0(a7)
   11b10:	0cd12e23          	sw	a3,220(sp)
   11b14:	0ce12c23          	sw	a4,216(sp)
   11b18:	02ee5663          	ble	a4,t3,11b44 <_vfprintf_r+0x155c>
   11b1c:	0d410613          	addi	a2,sp,212
   11b20:	00090593          	mv	a1,s2
   11b24:	00098513          	mv	a0,s3
   11b28:	05c12423          	sw	t3,72(sp)
   11b2c:	04f12223          	sw	a5,68(sp)
   11b30:	711070ef          	jal	ra,19a40 <__sprint_r>
   11b34:	1c0514e3          	bnez	a0,124fc <_vfprintf_r+0x1f14>
   11b38:	04812e03          	lw	t3,72(sp)
   11b3c:	04412783          	lw	a5,68(sp)
   11b40:	0fc10613          	addi	a2,sp,252
   11b44:	ff0d8d93          	addi	s11,s11,-16
   11b48:	00060893          	mv	a7,a2
   11b4c:	bf1ff06f          	j	1173c <_vfprintf_r+0x1154>
   11b50:	01068693          	addi	a3,a3,16
   11b54:	01b8a223          	sw	s11,4(a7)
   11b58:	0cd12e23          	sw	a3,220(sp)
   11b5c:	0ce12c23          	sw	a4,216(sp)
   11b60:	02e85263          	ble	a4,a6,11b84 <_vfprintf_r+0x159c>
   11b64:	0d410613          	addi	a2,sp,212
   11b68:	00090593          	mv	a1,s2
   11b6c:	00098513          	mv	a0,s3
   11b70:	05012223          	sw	a6,68(sp)
   11b74:	6cd070ef          	jal	ra,19a40 <__sprint_r>
   11b78:	180512e3          	bnez	a0,124fc <_vfprintf_r+0x1f14>
   11b7c:	04412803          	lw	a6,68(sp)
   11b80:	0fc10613          	addi	a2,sp,252
   11b84:	ff0a8a93          	addi	s5,s5,-16
   11b88:	00060893          	mv	a7,a2
   11b8c:	c11ff06f          	j	1179c <_vfprintf_r+0x11b4>
   11b90:	06500713          	li	a4,101
   11b94:	71a75263          	ble	s10,a4,12298 <_vfprintf_r+0x1cb0>
   11b98:	0e012703          	lw	a4,224(sp)
   11b9c:	09010593          	addi	a1,sp,144
   11ba0:	0a010513          	addi	a0,sp,160
   11ba4:	0ae12023          	sw	a4,160(sp)
   11ba8:	0e412703          	lw	a4,228(sp)
   11bac:	05112223          	sw	a7,68(sp)
   11bb0:	08012823          	sw	zero,144(sp)
   11bb4:	0ae12223          	sw	a4,164(sp)
   11bb8:	0e812703          	lw	a4,232(sp)
   11bbc:	08012a23          	sw	zero,148(sp)
   11bc0:	08012c23          	sw	zero,152(sp)
   11bc4:	0ae12423          	sw	a4,168(sp)
   11bc8:	0ec12703          	lw	a4,236(sp)
   11bcc:	08012e23          	sw	zero,156(sp)
   11bd0:	0ae12623          	sw	a4,172(sp)
   11bd4:	3650b0ef          	jal	ra,1d738 <__eqtf2>
   11bd8:	04412883          	lw	a7,68(sp)
   11bdc:	18051263          	bnez	a0,11d60 <_vfprintf_r+0x1778>
   11be0:	000217b7          	lui	a5,0x21
   11be4:	a8078793          	addi	a5,a5,-1408 # 20a80 <zeroes.4405+0x48>
   11be8:	00f8a023          	sw	a5,0(a7)
   11bec:	00100793          	li	a5,1
   11bf0:	00f8a223          	sw	a5,4(a7)
   11bf4:	0d812783          	lw	a5,216(sp)
   11bf8:	001d8d93          	addi	s11,s11,1
   11bfc:	0db12e23          	sw	s11,220(sp)
   11c00:	00178793          	addi	a5,a5,1
   11c04:	0cf12c23          	sw	a5,216(sp)
   11c08:	00700713          	li	a4,7
   11c0c:	00888893          	addi	a7,a7,8
   11c10:	00f75e63          	ble	a5,a4,11c2c <_vfprintf_r+0x1644>
   11c14:	0d410613          	addi	a2,sp,212
   11c18:	00090593          	mv	a1,s2
   11c1c:	00098513          	mv	a0,s3
   11c20:	621070ef          	jal	ra,19a40 <__sprint_r>
   11c24:	0c051ce3          	bnez	a0,124fc <_vfprintf_r+0x1f14>
   11c28:	0fc10893          	addi	a7,sp,252
   11c2c:	0bc12783          	lw	a5,188(sp)
   11c30:	0147c663          	blt	a5,s4,11c3c <_vfprintf_r+0x1654>
   11c34:	00147793          	andi	a5,s0,1
   11c38:	08078e63          	beqz	a5,11cd4 <_vfprintf_r+0x16ec>
   11c3c:	03412783          	lw	a5,52(sp)
   11c40:	02012703          	lw	a4,32(sp)
   11c44:	00888893          	addi	a7,a7,8
   11c48:	fef8ac23          	sw	a5,-8(a7)
   11c4c:	02012783          	lw	a5,32(sp)
   11c50:	fef8ae23          	sw	a5,-4(a7)
   11c54:	0dc12783          	lw	a5,220(sp)
   11c58:	00e787b3          	add	a5,a5,a4
   11c5c:	0cf12e23          	sw	a5,220(sp)
   11c60:	0d812783          	lw	a5,216(sp)
   11c64:	00700713          	li	a4,7
   11c68:	00178793          	addi	a5,a5,1
   11c6c:	0cf12c23          	sw	a5,216(sp)
   11c70:	00f75e63          	ble	a5,a4,11c8c <_vfprintf_r+0x16a4>
   11c74:	0d410613          	addi	a2,sp,212
   11c78:	00090593          	mv	a1,s2
   11c7c:	00098513          	mv	a0,s3
   11c80:	5c1070ef          	jal	ra,19a40 <__sprint_r>
   11c84:	06051ce3          	bnez	a0,124fc <_vfprintf_r+0x1f14>
   11c88:	0fc10893          	addi	a7,sp,252
   11c8c:	fffa0493          	addi	s1,s4,-1
   11c90:	04905263          	blez	s1,11cd4 <_vfprintf_r+0x16ec>
   11c94:	01000a93          	li	s5,16
   11c98:	00700b93          	li	s7,7
   11c9c:	01412603          	lw	a2,20(sp)
   11ca0:	0d812783          	lw	a5,216(sp)
   11ca4:	0dc12703          	lw	a4,220(sp)
   11ca8:	00c8a023          	sw	a2,0(a7)
   11cac:	00178793          	addi	a5,a5,1
   11cb0:	00888693          	addi	a3,a7,8
   11cb4:	069aca63          	blt	s5,s1,11d28 <_vfprintf_r+0x1740>
   11cb8:	0098a223          	sw	s1,4(a7)
   11cbc:	00e484b3          	add	s1,s1,a4
   11cc0:	0c912e23          	sw	s1,220(sp)
   11cc4:	0cf12c23          	sw	a5,216(sp)
   11cc8:	00700713          	li	a4,7
   11ccc:	00068893          	mv	a7,a3
   11cd0:	b4f748e3          	blt	a4,a5,11820 <_vfprintf_r+0x1238>
   11cd4:	00447413          	andi	s0,s0,4
   11cd8:	7c041263          	bnez	s0,1249c <_vfprintf_r+0x1eb4>
   11cdc:	02812d03          	lw	s10,40(sp)
   11ce0:	02c12783          	lw	a5,44(sp)
   11ce4:	00fd5463          	ble	a5,s10,11cec <_vfprintf_r+0x1704>
   11ce8:	00078d13          	mv	s10,a5
   11cec:	02412783          	lw	a5,36(sp)
   11cf0:	01a787b3          	add	a5,a5,s10
   11cf4:	02f12223          	sw	a5,36(sp)
   11cf8:	0dc12783          	lw	a5,220(sp)
   11cfc:	00078c63          	beqz	a5,11d14 <_vfprintf_r+0x172c>
   11d00:	0d410613          	addi	a2,sp,212
   11d04:	00090593          	mv	a1,s2
   11d08:	00098513          	mv	a0,s3
   11d0c:	535070ef          	jal	ra,19a40 <__sprint_r>
   11d10:	7e051663          	bnez	a0,124fc <_vfprintf_r+0x1f14>
   11d14:	00c12783          	lw	a5,12(sp)
   11d18:	0c012c23          	sw	zero,216(sp)
   11d1c:	02079ae3          	bnez	a5,12550 <_vfprintf_r+0x1f68>
   11d20:	0fc10893          	addi	a7,sp,252
   11d24:	f28ff06f          	j	1144c <_vfprintf_r+0xe64>
   11d28:	01070713          	addi	a4,a4,16
   11d2c:	0158a223          	sw	s5,4(a7)
   11d30:	0ce12e23          	sw	a4,220(sp)
   11d34:	0cf12c23          	sw	a5,216(sp)
   11d38:	00fbde63          	ble	a5,s7,11d54 <_vfprintf_r+0x176c>
   11d3c:	0d410613          	addi	a2,sp,212
   11d40:	00090593          	mv	a1,s2
   11d44:	00098513          	mv	a0,s3
   11d48:	4f9070ef          	jal	ra,19a40 <__sprint_r>
   11d4c:	7a051863          	bnez	a0,124fc <_vfprintf_r+0x1f14>
   11d50:	0fc10693          	addi	a3,sp,252
   11d54:	ff048493          	addi	s1,s1,-16
   11d58:	00068893          	mv	a7,a3
   11d5c:	f41ff06f          	j	11c9c <_vfprintf_r+0x16b4>
   11d60:	0bc12703          	lw	a4,188(sp)
   11d64:	16e04463          	bgtz	a4,11ecc <_vfprintf_r+0x18e4>
   11d68:	000217b7          	lui	a5,0x21
   11d6c:	a8078793          	addi	a5,a5,-1408 # 20a80 <zeroes.4405+0x48>
   11d70:	00f8a023          	sw	a5,0(a7)
   11d74:	00100793          	li	a5,1
   11d78:	00f8a223          	sw	a5,4(a7)
   11d7c:	0d812783          	lw	a5,216(sp)
   11d80:	001d8d93          	addi	s11,s11,1
   11d84:	0db12e23          	sw	s11,220(sp)
   11d88:	00178793          	addi	a5,a5,1
   11d8c:	0cf12c23          	sw	a5,216(sp)
   11d90:	00700713          	li	a4,7
   11d94:	00888893          	addi	a7,a7,8
   11d98:	00f75e63          	ble	a5,a4,11db4 <_vfprintf_r+0x17cc>
   11d9c:	0d410613          	addi	a2,sp,212
   11da0:	00090593          	mv	a1,s2
   11da4:	00098513          	mv	a0,s3
   11da8:	499070ef          	jal	ra,19a40 <__sprint_r>
   11dac:	74051863          	bnez	a0,124fc <_vfprintf_r+0x1f14>
   11db0:	0fc10893          	addi	a7,sp,252
   11db4:	0bc12783          	lw	a5,188(sp)
   11db8:	00079863          	bnez	a5,11dc8 <_vfprintf_r+0x17e0>
   11dbc:	000a1663          	bnez	s4,11dc8 <_vfprintf_r+0x17e0>
   11dc0:	00147793          	andi	a5,s0,1
   11dc4:	f00788e3          	beqz	a5,11cd4 <_vfprintf_r+0x16ec>
   11dc8:	03412783          	lw	a5,52(sp)
   11dcc:	02012703          	lw	a4,32(sp)
   11dd0:	00888893          	addi	a7,a7,8
   11dd4:	fef8ac23          	sw	a5,-8(a7)
   11dd8:	02012783          	lw	a5,32(sp)
   11ddc:	fef8ae23          	sw	a5,-4(a7)
   11de0:	0dc12783          	lw	a5,220(sp)
   11de4:	00e787b3          	add	a5,a5,a4
   11de8:	0cf12e23          	sw	a5,220(sp)
   11dec:	0d812783          	lw	a5,216(sp)
   11df0:	00700713          	li	a4,7
   11df4:	00178793          	addi	a5,a5,1
   11df8:	0cf12c23          	sw	a5,216(sp)
   11dfc:	00f75e63          	ble	a5,a4,11e18 <_vfprintf_r+0x1830>
   11e00:	0d410613          	addi	a2,sp,212
   11e04:	00090593          	mv	a1,s2
   11e08:	00098513          	mv	a0,s3
   11e0c:	435070ef          	jal	ra,19a40 <__sprint_r>
   11e10:	6e051663          	bnez	a0,124fc <_vfprintf_r+0x1f14>
   11e14:	0fc10893          	addi	a7,sp,252
   11e18:	0bc12a83          	lw	s5,188(sp)
   11e1c:	060ad063          	bgez	s5,11e7c <_vfprintf_r+0x1894>
   11e20:	41500ab3          	neg	s5,s5
   11e24:	00088713          	mv	a4,a7
   11e28:	01000b93          	li	s7,16
   11e2c:	00700c13          	li	s8,7
   11e30:	01412603          	lw	a2,20(sp)
   11e34:	0d812783          	lw	a5,216(sp)
   11e38:	0dc12683          	lw	a3,220(sp)
   11e3c:	00c72023          	sw	a2,0(a4)
   11e40:	00178793          	addi	a5,a5,1
   11e44:	00888893          	addi	a7,a7,8
   11e48:	055bc663          	blt	s7,s5,11e94 <_vfprintf_r+0x18ac>
   11e4c:	01572223          	sw	s5,4(a4)
   11e50:	00da8ab3          	add	s5,s5,a3
   11e54:	0d512e23          	sw	s5,220(sp)
   11e58:	0cf12c23          	sw	a5,216(sp)
   11e5c:	00700713          	li	a4,7
   11e60:	00f75e63          	ble	a5,a4,11e7c <_vfprintf_r+0x1894>
   11e64:	0d410613          	addi	a2,sp,212
   11e68:	00090593          	mv	a1,s2
   11e6c:	00098513          	mv	a0,s3
   11e70:	3d1070ef          	jal	ra,19a40 <__sprint_r>
   11e74:	68051463          	bnez	a0,124fc <_vfprintf_r+0x1f14>
   11e78:	0fc10893          	addi	a7,sp,252
   11e7c:	0dc12783          	lw	a5,220(sp)
   11e80:	0098a023          	sw	s1,0(a7)
   11e84:	0148a223          	sw	s4,4(a7)
   11e88:	014787b3          	add	a5,a5,s4
   11e8c:	0cf12e23          	sw	a5,220(sp)
   11e90:	979ff06f          	j	11808 <_vfprintf_r+0x1220>
   11e94:	01068693          	addi	a3,a3,16
   11e98:	01772223          	sw	s7,4(a4)
   11e9c:	0cd12e23          	sw	a3,220(sp)
   11ea0:	0cf12c23          	sw	a5,216(sp)
   11ea4:	00fc5e63          	ble	a5,s8,11ec0 <_vfprintf_r+0x18d8>
   11ea8:	0d410613          	addi	a2,sp,212
   11eac:	00090593          	mv	a1,s2
   11eb0:	00098513          	mv	a0,s3
   11eb4:	38d070ef          	jal	ra,19a40 <__sprint_r>
   11eb8:	64051263          	bnez	a0,124fc <_vfprintf_r+0x1f14>
   11ebc:	0fc10893          	addi	a7,sp,252
   11ec0:	ff0a8a93          	addi	s5,s5,-16
   11ec4:	00088713          	mv	a4,a7
   11ec8:	f69ff06f          	j	11e30 <_vfprintf_r+0x1848>
   11ecc:	000c8a93          	mv	s5,s9
   11ed0:	019a5463          	ble	s9,s4,11ed8 <_vfprintf_r+0x18f0>
   11ed4:	000a0a93          	mv	s5,s4
   11ed8:	05505263          	blez	s5,11f1c <_vfprintf_r+0x1934>
   11edc:	0d812703          	lw	a4,216(sp)
   11ee0:	01ba8db3          	add	s11,s5,s11
   11ee4:	0098a023          	sw	s1,0(a7)
   11ee8:	00170713          	addi	a4,a4,1
   11eec:	0158a223          	sw	s5,4(a7)
   11ef0:	0db12e23          	sw	s11,220(sp)
   11ef4:	0ce12c23          	sw	a4,216(sp)
   11ef8:	00700693          	li	a3,7
   11efc:	00888893          	addi	a7,a7,8
   11f00:	00e6de63          	ble	a4,a3,11f1c <_vfprintf_r+0x1934>
   11f04:	0d410613          	addi	a2,sp,212
   11f08:	00090593          	mv	a1,s2
   11f0c:	00098513          	mv	a0,s3
   11f10:	331070ef          	jal	ra,19a40 <__sprint_r>
   11f14:	5e051463          	bnez	a0,124fc <_vfprintf_r+0x1f14>
   11f18:	0fc10893          	addi	a7,sp,252
   11f1c:	000ad463          	bgez	s5,11f24 <_vfprintf_r+0x193c>
   11f20:	00000a93          	li	s5,0
   11f24:	415c8ab3          	sub	s5,s9,s5
   11f28:	05505e63          	blez	s5,11f84 <_vfprintf_r+0x199c>
   11f2c:	01000d13          	li	s10,16
   11f30:	00700d93          	li	s11,7
   11f34:	01412783          	lw	a5,20(sp)
   11f38:	0d812703          	lw	a4,216(sp)
   11f3c:	0dc12683          	lw	a3,220(sp)
   11f40:	00f8a023          	sw	a5,0(a7)
   11f44:	00170713          	addi	a4,a4,1
   11f48:	00888613          	addi	a2,a7,8
   11f4c:	195d4c63          	blt	s10,s5,120e4 <_vfprintf_r+0x1afc>
   11f50:	0158a223          	sw	s5,4(a7)
   11f54:	00da8ab3          	add	s5,s5,a3
   11f58:	0d512e23          	sw	s5,220(sp)
   11f5c:	0ce12c23          	sw	a4,216(sp)
   11f60:	00700693          	li	a3,7
   11f64:	00060893          	mv	a7,a2
   11f68:	00e6de63          	ble	a4,a3,11f84 <_vfprintf_r+0x199c>
   11f6c:	0d410613          	addi	a2,sp,212
   11f70:	00090593          	mv	a1,s2
   11f74:	00098513          	mv	a0,s3
   11f78:	2c9070ef          	jal	ra,19a40 <__sprint_r>
   11f7c:	58051063          	bnez	a0,124fc <_vfprintf_r+0x1f14>
   11f80:	0fc10893          	addi	a7,sp,252
   11f84:	40047793          	andi	a5,s0,1024
   11f88:	01948ab3          	add	s5,s1,s9
   11f8c:	02078063          	beqz	a5,11fac <_vfprintf_r+0x19c4>
   11f90:	00700d13          	li	s10,7
   11f94:	01448db3          	add	s11,s1,s4
   11f98:	180b9263          	bnez	s7,1211c <_vfprintf_r+0x1b34>
   11f9c:	180c1263          	bnez	s8,12120 <_vfprintf_r+0x1b38>
   11fa0:	014487b3          	add	a5,s1,s4
   11fa4:	0157f463          	bleu	s5,a5,11fac <_vfprintf_r+0x19c4>
   11fa8:	00078a93          	mv	s5,a5
   11fac:	0bc12783          	lw	a5,188(sp)
   11fb0:	0147c663          	blt	a5,s4,11fbc <_vfprintf_r+0x19d4>
   11fb4:	00147793          	andi	a5,s0,1
   11fb8:	04078a63          	beqz	a5,1200c <_vfprintf_r+0x1a24>
   11fbc:	03412783          	lw	a5,52(sp)
   11fc0:	02012703          	lw	a4,32(sp)
   11fc4:	00888893          	addi	a7,a7,8
   11fc8:	fef8ac23          	sw	a5,-8(a7)
   11fcc:	02012783          	lw	a5,32(sp)
   11fd0:	fef8ae23          	sw	a5,-4(a7)
   11fd4:	0dc12783          	lw	a5,220(sp)
   11fd8:	00e787b3          	add	a5,a5,a4
   11fdc:	0cf12e23          	sw	a5,220(sp)
   11fe0:	0d812783          	lw	a5,216(sp)
   11fe4:	00700713          	li	a4,7
   11fe8:	00178793          	addi	a5,a5,1
   11fec:	0cf12c23          	sw	a5,216(sp)
   11ff0:	00f75e63          	ble	a5,a4,1200c <_vfprintf_r+0x1a24>
   11ff4:	0d410613          	addi	a2,sp,212
   11ff8:	00090593          	mv	a1,s2
   11ffc:	00098513          	mv	a0,s3
   12000:	241070ef          	jal	ra,19a40 <__sprint_r>
   12004:	4e051c63          	bnez	a0,124fc <_vfprintf_r+0x1f14>
   12008:	0fc10893          	addi	a7,sp,252
   1200c:	014484b3          	add	s1,s1,s4
   12010:	415487b3          	sub	a5,s1,s5
   12014:	0bc12483          	lw	s1,188(sp)
   12018:	409a04b3          	sub	s1,s4,s1
   1201c:	0097d463          	ble	s1,a5,12024 <_vfprintf_r+0x1a3c>
   12020:	00078493          	mv	s1,a5
   12024:	04905463          	blez	s1,1206c <_vfprintf_r+0x1a84>
   12028:	0dc12783          	lw	a5,220(sp)
   1202c:	0158a023          	sw	s5,0(a7)
   12030:	0098a223          	sw	s1,4(a7)
   12034:	00f487b3          	add	a5,s1,a5
   12038:	0cf12e23          	sw	a5,220(sp)
   1203c:	0d812783          	lw	a5,216(sp)
   12040:	00700713          	li	a4,7
   12044:	00888893          	addi	a7,a7,8
   12048:	00178793          	addi	a5,a5,1
   1204c:	0cf12c23          	sw	a5,216(sp)
   12050:	00f75e63          	ble	a5,a4,1206c <_vfprintf_r+0x1a84>
   12054:	0d410613          	addi	a2,sp,212
   12058:	00090593          	mv	a1,s2
   1205c:	00098513          	mv	a0,s3
   12060:	1e1070ef          	jal	ra,19a40 <__sprint_r>
   12064:	48051c63          	bnez	a0,124fc <_vfprintf_r+0x1f14>
   12068:	0fc10893          	addi	a7,sp,252
   1206c:	00048793          	mv	a5,s1
   12070:	0004d463          	bgez	s1,12078 <_vfprintf_r+0x1a90>
   12074:	00000793          	li	a5,0
   12078:	0bc12483          	lw	s1,188(sp)
   1207c:	409a04b3          	sub	s1,s4,s1
   12080:	40f484b3          	sub	s1,s1,a5
   12084:	c49058e3          	blez	s1,11cd4 <_vfprintf_r+0x16ec>
   12088:	01000a93          	li	s5,16
   1208c:	00700b93          	li	s7,7
   12090:	01412603          	lw	a2,20(sp)
   12094:	0d812783          	lw	a5,216(sp)
   12098:	0dc12703          	lw	a4,220(sp)
   1209c:	00c8a023          	sw	a2,0(a7)
   120a0:	00178793          	addi	a5,a5,1
   120a4:	00888693          	addi	a3,a7,8
   120a8:	c09ad8e3          	ble	s1,s5,11cb8 <_vfprintf_r+0x16d0>
   120ac:	01070713          	addi	a4,a4,16
   120b0:	0158a223          	sw	s5,4(a7)
   120b4:	0ce12e23          	sw	a4,220(sp)
   120b8:	0cf12c23          	sw	a5,216(sp)
   120bc:	00fbde63          	ble	a5,s7,120d8 <_vfprintf_r+0x1af0>
   120c0:	0d410613          	addi	a2,sp,212
   120c4:	00090593          	mv	a1,s2
   120c8:	00098513          	mv	a0,s3
   120cc:	175070ef          	jal	ra,19a40 <__sprint_r>
   120d0:	42051663          	bnez	a0,124fc <_vfprintf_r+0x1f14>
   120d4:	0fc10693          	addi	a3,sp,252
   120d8:	ff048493          	addi	s1,s1,-16
   120dc:	00068893          	mv	a7,a3
   120e0:	fb1ff06f          	j	12090 <_vfprintf_r+0x1aa8>
   120e4:	01068693          	addi	a3,a3,16
   120e8:	01a8a223          	sw	s10,4(a7)
   120ec:	0cd12e23          	sw	a3,220(sp)
   120f0:	0ce12c23          	sw	a4,216(sp)
   120f4:	00edde63          	ble	a4,s11,12110 <_vfprintf_r+0x1b28>
   120f8:	0d410613          	addi	a2,sp,212
   120fc:	00090593          	mv	a1,s2
   12100:	00098513          	mv	a0,s3
   12104:	13d070ef          	jal	ra,19a40 <__sprint_r>
   12108:	3e051a63          	bnez	a0,124fc <_vfprintf_r+0x1f14>
   1210c:	0fc10613          	addi	a2,sp,252
   12110:	ff0a8a93          	addi	s5,s5,-16
   12114:	00060893          	mv	a7,a2
   12118:	e1dff06f          	j	11f34 <_vfprintf_r+0x194c>
   1211c:	0c0c0e63          	beqz	s8,121f8 <_vfprintf_r+0x1c10>
   12120:	fffc0c13          	addi	s8,s8,-1
   12124:	03812783          	lw	a5,56(sp)
   12128:	03012703          	lw	a4,48(sp)
   1212c:	00888893          	addi	a7,a7,8
   12130:	fef8ac23          	sw	a5,-8(a7)
   12134:	03012783          	lw	a5,48(sp)
   12138:	fef8ae23          	sw	a5,-4(a7)
   1213c:	0dc12783          	lw	a5,220(sp)
   12140:	00e787b3          	add	a5,a5,a4
   12144:	0cf12e23          	sw	a5,220(sp)
   12148:	0d812783          	lw	a5,216(sp)
   1214c:	00178793          	addi	a5,a5,1
   12150:	0cf12c23          	sw	a5,216(sp)
   12154:	00fd5e63          	ble	a5,s10,12170 <_vfprintf_r+0x1b88>
   12158:	0d410613          	addi	a2,sp,212
   1215c:	00090593          	mv	a1,s2
   12160:	00098513          	mv	a0,s3
   12164:	0dd070ef          	jal	ra,19a40 <__sprint_r>
   12168:	38051a63          	bnez	a0,124fc <_vfprintf_r+0x1f14>
   1216c:	0fc10893          	addi	a7,sp,252
   12170:	01012783          	lw	a5,16(sp)
   12174:	415d8733          	sub	a4,s11,s5
   12178:	0007cb03          	lbu	s6,0(a5)
   1217c:	01675463          	ble	s6,a4,12184 <_vfprintf_r+0x1b9c>
   12180:	00070b13          	mv	s6,a4
   12184:	05605263          	blez	s6,121c8 <_vfprintf_r+0x1be0>
   12188:	0dc12703          	lw	a4,220(sp)
   1218c:	0158a023          	sw	s5,0(a7)
   12190:	0168a223          	sw	s6,4(a7)
   12194:	00eb0733          	add	a4,s6,a4
   12198:	0ce12e23          	sw	a4,220(sp)
   1219c:	0d812703          	lw	a4,216(sp)
   121a0:	00888893          	addi	a7,a7,8
   121a4:	00170713          	addi	a4,a4,1
   121a8:	0ce12c23          	sw	a4,216(sp)
   121ac:	00ed5e63          	ble	a4,s10,121c8 <_vfprintf_r+0x1be0>
   121b0:	0d410613          	addi	a2,sp,212
   121b4:	00090593          	mv	a1,s2
   121b8:	00098513          	mv	a0,s3
   121bc:	085070ef          	jal	ra,19a40 <__sprint_r>
   121c0:	32051e63          	bnez	a0,124fc <_vfprintf_r+0x1f14>
   121c4:	0fc10893          	addi	a7,sp,252
   121c8:	000b0713          	mv	a4,s6
   121cc:	000b5463          	bgez	s6,121d4 <_vfprintf_r+0x1bec>
   121d0:	00000713          	li	a4,0
   121d4:	01012783          	lw	a5,16(sp)
   121d8:	01000813          	li	a6,16
   121dc:	0007c783          	lbu	a5,0(a5)
   121e0:	40e78b33          	sub	s6,a5,a4
   121e4:	07604263          	bgtz	s6,12248 <_vfprintf_r+0x1c60>
   121e8:	01012783          	lw	a5,16(sp)
   121ec:	0007c783          	lbu	a5,0(a5)
   121f0:	00fa8ab3          	add	s5,s5,a5
   121f4:	da5ff06f          	j	11f98 <_vfprintf_r+0x19b0>
   121f8:	01012783          	lw	a5,16(sp)
   121fc:	fffb8b93          	addi	s7,s7,-1
   12200:	fff78793          	addi	a5,a5,-1
   12204:	00f12823          	sw	a5,16(sp)
   12208:	f1dff06f          	j	12124 <_vfprintf_r+0x1b3c>
   1220c:	01068693          	addi	a3,a3,16
   12210:	0108a223          	sw	a6,4(a7)
   12214:	0cd12e23          	sw	a3,220(sp)
   12218:	0ce12c23          	sw	a4,216(sp)
   1221c:	02ed5263          	ble	a4,s10,12240 <_vfprintf_r+0x1c58>
   12220:	0d410613          	addi	a2,sp,212
   12224:	00090593          	mv	a1,s2
   12228:	00098513          	mv	a0,s3
   1222c:	05012223          	sw	a6,68(sp)
   12230:	011070ef          	jal	ra,19a40 <__sprint_r>
   12234:	2c051463          	bnez	a0,124fc <_vfprintf_r+0x1f14>
   12238:	04412803          	lw	a6,68(sp)
   1223c:	0fc10613          	addi	a2,sp,252
   12240:	ff0b0b13          	addi	s6,s6,-16
   12244:	00060893          	mv	a7,a2
   12248:	01412783          	lw	a5,20(sp)
   1224c:	0d812703          	lw	a4,216(sp)
   12250:	0dc12683          	lw	a3,220(sp)
   12254:	00f8a023          	sw	a5,0(a7)
   12258:	00170713          	addi	a4,a4,1
   1225c:	00888613          	addi	a2,a7,8
   12260:	fb6846e3          	blt	a6,s6,1220c <_vfprintf_r+0x1c24>
   12264:	00db07b3          	add	a5,s6,a3
   12268:	0168a223          	sw	s6,4(a7)
   1226c:	0cf12e23          	sw	a5,220(sp)
   12270:	0ce12c23          	sw	a4,216(sp)
   12274:	00060893          	mv	a7,a2
   12278:	f6ed58e3          	ble	a4,s10,121e8 <_vfprintf_r+0x1c00>
   1227c:	0d410613          	addi	a2,sp,212
   12280:	00090593          	mv	a1,s2
   12284:	00098513          	mv	a0,s3
   12288:	7b8070ef          	jal	ra,19a40 <__sprint_r>
   1228c:	26051863          	bnez	a0,124fc <_vfprintf_r+0x1f14>
   12290:	0fc10893          	addi	a7,sp,252
   12294:	f55ff06f          	j	121e8 <_vfprintf_r+0x1c00>
   12298:	0d812783          	lw	a5,216(sp)
   1229c:	00100713          	li	a4,1
   122a0:	0098a023          	sw	s1,0(a7)
   122a4:	001d8d93          	addi	s11,s11,1
   122a8:	00178793          	addi	a5,a5,1
   122ac:	00888b93          	addi	s7,a7,8
   122b0:	01474663          	blt	a4,s4,122bc <_vfprintf_r+0x1cd4>
   122b4:	00147693          	andi	a3,s0,1
   122b8:	1c068663          	beqz	a3,12484 <_vfprintf_r+0x1e9c>
   122bc:	00100713          	li	a4,1
   122c0:	00e8a223          	sw	a4,4(a7)
   122c4:	0db12e23          	sw	s11,220(sp)
   122c8:	0cf12c23          	sw	a5,216(sp)
   122cc:	00700713          	li	a4,7
   122d0:	00f75e63          	ble	a5,a4,122ec <_vfprintf_r+0x1d04>
   122d4:	0d410613          	addi	a2,sp,212
   122d8:	00090593          	mv	a1,s2
   122dc:	00098513          	mv	a0,s3
   122e0:	760070ef          	jal	ra,19a40 <__sprint_r>
   122e4:	20051c63          	bnez	a0,124fc <_vfprintf_r+0x1f14>
   122e8:	0fc10b93          	addi	s7,sp,252
   122ec:	03412783          	lw	a5,52(sp)
   122f0:	02012703          	lw	a4,32(sp)
   122f4:	008b8b93          	addi	s7,s7,8
   122f8:	fefbac23          	sw	a5,-8(s7)
   122fc:	02012783          	lw	a5,32(sp)
   12300:	fefbae23          	sw	a5,-4(s7)
   12304:	0dc12783          	lw	a5,220(sp)
   12308:	00e787b3          	add	a5,a5,a4
   1230c:	0cf12e23          	sw	a5,220(sp)
   12310:	0d812783          	lw	a5,216(sp)
   12314:	00700713          	li	a4,7
   12318:	00178793          	addi	a5,a5,1
   1231c:	0cf12c23          	sw	a5,216(sp)
   12320:	00f75e63          	ble	a5,a4,1233c <_vfprintf_r+0x1d54>
   12324:	0d410613          	addi	a2,sp,212
   12328:	00090593          	mv	a1,s2
   1232c:	00098513          	mv	a0,s3
   12330:	710070ef          	jal	ra,19a40 <__sprint_r>
   12334:	1c051463          	bnez	a0,124fc <_vfprintf_r+0x1f14>
   12338:	0fc10b93          	addi	s7,sp,252
   1233c:	0e012783          	lw	a5,224(sp)
   12340:	09010593          	addi	a1,sp,144
   12344:	0a010513          	addi	a0,sp,160
   12348:	0af12023          	sw	a5,160(sp)
   1234c:	0e412783          	lw	a5,228(sp)
   12350:	fffa0a93          	addi	s5,s4,-1
   12354:	08012823          	sw	zero,144(sp)
   12358:	0af12223          	sw	a5,164(sp)
   1235c:	0e812783          	lw	a5,232(sp)
   12360:	08012a23          	sw	zero,148(sp)
   12364:	08012c23          	sw	zero,152(sp)
   12368:	0af12423          	sw	a5,168(sp)
   1236c:	0ec12783          	lw	a5,236(sp)
   12370:	08012e23          	sw	zero,156(sp)
   12374:	0af12623          	sw	a5,172(sp)
   12378:	3c00b0ef          	jal	ra,1d738 <__eqtf2>
   1237c:	08050663          	beqz	a0,12408 <_vfprintf_r+0x1e20>
   12380:	0dc12783          	lw	a5,220(sp)
   12384:	0d812703          	lw	a4,216(sp)
   12388:	00148493          	addi	s1,s1,1
   1238c:	fff78793          	addi	a5,a5,-1
   12390:	014787b3          	add	a5,a5,s4
   12394:	00170713          	addi	a4,a4,1
   12398:	009ba023          	sw	s1,0(s7)
   1239c:	015ba223          	sw	s5,4(s7)
   123a0:	0cf12e23          	sw	a5,220(sp)
   123a4:	0ce12c23          	sw	a4,216(sp)
   123a8:	00700793          	li	a5,7
   123ac:	008b8b93          	addi	s7,s7,8
   123b0:	00e7de63          	ble	a4,a5,123cc <_vfprintf_r+0x1de4>
   123b4:	0d410613          	addi	a2,sp,212
   123b8:	00090593          	mv	a1,s2
   123bc:	00098513          	mv	a0,s3
   123c0:	680070ef          	jal	ra,19a40 <__sprint_r>
   123c4:	12051c63          	bnez	a0,124fc <_vfprintf_r+0x1f14>
   123c8:	0fc10b93          	addi	s7,sp,252
   123cc:	0c410793          	addi	a5,sp,196
   123d0:	00fba023          	sw	a5,0(s7)
   123d4:	03c12783          	lw	a5,60(sp)
   123d8:	03c12703          	lw	a4,60(sp)
   123dc:	008b8893          	addi	a7,s7,8
   123e0:	00fba223          	sw	a5,4(s7)
   123e4:	0dc12783          	lw	a5,220(sp)
   123e8:	00e787b3          	add	a5,a5,a4
   123ec:	0cf12e23          	sw	a5,220(sp)
   123f0:	0d812783          	lw	a5,216(sp)
   123f4:	00700713          	li	a4,7
   123f8:	00178793          	addi	a5,a5,1
   123fc:	0cf12c23          	sw	a5,216(sp)
   12400:	8cf75ae3          	ble	a5,a4,11cd4 <_vfprintf_r+0x16ec>
   12404:	c1cff06f          	j	11820 <_vfprintf_r+0x1238>
   12408:	fd5052e3          	blez	s5,123cc <_vfprintf_r+0x1de4>
   1240c:	01000493          	li	s1,16
   12410:	00700c13          	li	s8,7
   12414:	01412603          	lw	a2,20(sp)
   12418:	0d812703          	lw	a4,216(sp)
   1241c:	0dc12783          	lw	a5,220(sp)
   12420:	00cba023          	sw	a2,0(s7)
   12424:	00170713          	addi	a4,a4,1
   12428:	008b8693          	addi	a3,s7,8
   1242c:	0354c063          	blt	s1,s5,1244c <_vfprintf_r+0x1e64>
   12430:	00fa87b3          	add	a5,s5,a5
   12434:	015ba223          	sw	s5,4(s7)
   12438:	0cf12e23          	sw	a5,220(sp)
   1243c:	0ce12c23          	sw	a4,216(sp)
   12440:	00700793          	li	a5,7
   12444:	00068b93          	mv	s7,a3
   12448:	f69ff06f          	j	123b0 <_vfprintf_r+0x1dc8>
   1244c:	01078793          	addi	a5,a5,16
   12450:	009ba223          	sw	s1,4(s7)
   12454:	0cf12e23          	sw	a5,220(sp)
   12458:	0ce12c23          	sw	a4,216(sp)
   1245c:	00ec5e63          	ble	a4,s8,12478 <_vfprintf_r+0x1e90>
   12460:	0d410613          	addi	a2,sp,212
   12464:	00090593          	mv	a1,s2
   12468:	00098513          	mv	a0,s3
   1246c:	5d4070ef          	jal	ra,19a40 <__sprint_r>
   12470:	08051663          	bnez	a0,124fc <_vfprintf_r+0x1f14>
   12474:	0fc10693          	addi	a3,sp,252
   12478:	ff0a8a93          	addi	s5,s5,-16
   1247c:	00068b93          	mv	s7,a3
   12480:	f95ff06f          	j	12414 <_vfprintf_r+0x1e2c>
   12484:	00e8a223          	sw	a4,4(a7)
   12488:	0db12e23          	sw	s11,220(sp)
   1248c:	0cf12c23          	sw	a5,216(sp)
   12490:	00700713          	li	a4,7
   12494:	f2f75ce3          	ble	a5,a4,123cc <_vfprintf_r+0x1de4>
   12498:	f1dff06f          	j	123b4 <_vfprintf_r+0x1dcc>
   1249c:	02812783          	lw	a5,40(sp)
   124a0:	02c12703          	lw	a4,44(sp)
   124a4:	40e78433          	sub	s0,a5,a4
   124a8:	82805ae3          	blez	s0,11cdc <_vfprintf_r+0x16f4>
   124ac:	000214b7          	lui	s1,0x21
   124b0:	01000a93          	li	s5,16
   124b4:	a2848493          	addi	s1,s1,-1496 # 20a28 <blanks.4404>
   124b8:	00700b93          	li	s7,7
   124bc:	0d812783          	lw	a5,216(sp)
   124c0:	0098a023          	sw	s1,0(a7)
   124c4:	0dc12703          	lw	a4,220(sp)
   124c8:	00178793          	addi	a5,a5,1
   124cc:	048ac663          	blt	s5,s0,12518 <_vfprintf_r+0x1f30>
   124d0:	0088a223          	sw	s0,4(a7)
   124d4:	00e40433          	add	s0,s0,a4
   124d8:	0c812e23          	sw	s0,220(sp)
   124dc:	0cf12c23          	sw	a5,216(sp)
   124e0:	00700713          	li	a4,7
   124e4:	fef75c63          	ble	a5,a4,11cdc <_vfprintf_r+0x16f4>
   124e8:	0d410613          	addi	a2,sp,212
   124ec:	00090593          	mv	a1,s2
   124f0:	00098513          	mv	a0,s3
   124f4:	54c070ef          	jal	ra,19a40 <__sprint_r>
   124f8:	fe050263          	beqz	a0,11cdc <_vfprintf_r+0x16f4>
   124fc:	00c12783          	lw	a5,12(sp)
   12500:	00079463          	bnez	a5,12508 <_vfprintf_r+0x1f20>
   12504:	fbcfe06f          	j	10cc0 <_vfprintf_r+0x6d8>
   12508:	00078593          	mv	a1,a5
   1250c:	00098513          	mv	a0,s3
   12510:	241000ef          	jal	ra,12f50 <_free_r>
   12514:	facfe06f          	j	10cc0 <_vfprintf_r+0x6d8>
   12518:	01070713          	addi	a4,a4,16
   1251c:	0158a223          	sw	s5,4(a7)
   12520:	0ce12e23          	sw	a4,220(sp)
   12524:	0cf12c23          	sw	a5,216(sp)
   12528:	00888893          	addi	a7,a7,8
   1252c:	00fbde63          	ble	a5,s7,12548 <_vfprintf_r+0x1f60>
   12530:	0d410613          	addi	a2,sp,212
   12534:	00090593          	mv	a1,s2
   12538:	00098513          	mv	a0,s3
   1253c:	504070ef          	jal	ra,19a40 <__sprint_r>
   12540:	fa051ee3          	bnez	a0,124fc <_vfprintf_r+0x1f14>
   12544:	0fc10893          	addi	a7,sp,252
   12548:	ff040413          	addi	s0,s0,-16
   1254c:	f71ff06f          	j	124bc <_vfprintf_r+0x1ed4>
   12550:	00c12583          	lw	a1,12(sp)
   12554:	00098513          	mv	a0,s3
   12558:	1f9000ef          	jal	ra,12f50 <_free_r>
   1255c:	fc4ff06f          	j	11d20 <_vfprintf_r+0x1738>
   12560:	0dc12783          	lw	a5,220(sp)
   12564:	00079463          	bnez	a5,1256c <_vfprintf_r+0x1f84>
   12568:	f58fe06f          	j	10cc0 <_vfprintf_r+0x6d8>
   1256c:	0d410613          	addi	a2,sp,212
   12570:	00090593          	mv	a1,s2
   12574:	00098513          	mv	a0,s3
   12578:	4c8070ef          	jal	ra,19a40 <__sprint_r>
   1257c:	f44fe06f          	j	10cc0 <_vfprintf_r+0x6d8>

00012580 <vfprintf>:
   12580:	00060693          	mv	a3,a2
   12584:	00058613          	mv	a2,a1
   12588:	00050593          	mv	a1,a0
   1258c:	8201a503          	lw	a0,-2016(gp) # 229c8 <_impure_ptr>
   12590:	858fe06f          	j	105e8 <_vfprintf_r>

00012594 <__sbprintf>:
   12594:	00c5d783          	lhu	a5,12(a1)
   12598:	b8010113          	addi	sp,sp,-1152
   1259c:	46812c23          	sw	s0,1144(sp)
   125a0:	ffd7f793          	andi	a5,a5,-3
   125a4:	00f11a23          	sh	a5,20(sp)
   125a8:	0645a783          	lw	a5,100(a1)
   125ac:	00058413          	mv	s0,a1
   125b0:	46912a23          	sw	s1,1140(sp)
   125b4:	06f12623          	sw	a5,108(sp)
   125b8:	00e5d783          	lhu	a5,14(a1)
   125bc:	47212823          	sw	s2,1136(sp)
   125c0:	46112e23          	sw	ra,1148(sp)
   125c4:	00f11b23          	sh	a5,22(sp)
   125c8:	01c5a783          	lw	a5,28(a1)
   125cc:	00050913          	mv	s2,a0
   125d0:	02012023          	sw	zero,32(sp)
   125d4:	02f12223          	sw	a5,36(sp)
   125d8:	0245a783          	lw	a5,36(a1)
   125dc:	00810593          	addi	a1,sp,8
   125e0:	02f12623          	sw	a5,44(sp)
   125e4:	07010793          	addi	a5,sp,112
   125e8:	00f12423          	sw	a5,8(sp)
   125ec:	00f12c23          	sw	a5,24(sp)
   125f0:	40000793          	li	a5,1024
   125f4:	00f12823          	sw	a5,16(sp)
   125f8:	00f12e23          	sw	a5,28(sp)
   125fc:	fedfd0ef          	jal	ra,105e8 <_vfprintf_r>
   12600:	00050493          	mv	s1,a0
   12604:	00054c63          	bltz	a0,1261c <__sbprintf+0x88>
   12608:	00810593          	addi	a1,sp,8
   1260c:	00090513          	mv	a0,s2
   12610:	504000ef          	jal	ra,12b14 <_fflush_r>
   12614:	00050463          	beqz	a0,1261c <__sbprintf+0x88>
   12618:	fff00493          	li	s1,-1
   1261c:	01415783          	lhu	a5,20(sp)
   12620:	0407f793          	andi	a5,a5,64
   12624:	00078863          	beqz	a5,12634 <__sbprintf+0xa0>
   12628:	00c45783          	lhu	a5,12(s0)
   1262c:	0407e793          	ori	a5,a5,64
   12630:	00f41623          	sh	a5,12(s0)
   12634:	47c12083          	lw	ra,1148(sp)
   12638:	47812403          	lw	s0,1144(sp)
   1263c:	00048513          	mv	a0,s1
   12640:	47012903          	lw	s2,1136(sp)
   12644:	47412483          	lw	s1,1140(sp)
   12648:	48010113          	addi	sp,sp,1152
   1264c:	00008067          	ret

00012650 <__swsetup_r>:
   12650:	ff010113          	addi	sp,sp,-16
   12654:	00912223          	sw	s1,4(sp)
   12658:	00050493          	mv	s1,a0
   1265c:	8201a503          	lw	a0,-2016(gp) # 229c8 <_impure_ptr>
   12660:	00812423          	sw	s0,8(sp)
   12664:	00112623          	sw	ra,12(sp)
   12668:	00058413          	mv	s0,a1
   1266c:	00050863          	beqz	a0,1267c <__swsetup_r+0x2c>
   12670:	03852783          	lw	a5,56(a0)
   12674:	00079463          	bnez	a5,1267c <__swsetup_r+0x2c>
   12678:	62c000ef          	jal	ra,12ca4 <__sinit>
   1267c:	00c41703          	lh	a4,12(s0)
   12680:	01071793          	slli	a5,a4,0x10
   12684:	0107d793          	srli	a5,a5,0x10
   12688:	0087f693          	andi	a3,a5,8
   1268c:	06069e63          	bnez	a3,12708 <__swsetup_r+0xb8>
   12690:	0107f693          	andi	a3,a5,16
   12694:	02069663          	bnez	a3,126c0 <__swsetup_r+0x70>
   12698:	00900793          	li	a5,9
   1269c:	00f4a023          	sw	a5,0(s1)
   126a0:	04076713          	ori	a4,a4,64
   126a4:	00e41623          	sh	a4,12(s0)
   126a8:	fff00513          	li	a0,-1
   126ac:	00c12083          	lw	ra,12(sp)
   126b0:	00812403          	lw	s0,8(sp)
   126b4:	00412483          	lw	s1,4(sp)
   126b8:	01010113          	addi	sp,sp,16
   126bc:	00008067          	ret
   126c0:	0047f793          	andi	a5,a5,4
   126c4:	02078c63          	beqz	a5,126fc <__swsetup_r+0xac>
   126c8:	03042583          	lw	a1,48(s0)
   126cc:	00058c63          	beqz	a1,126e4 <__swsetup_r+0x94>
   126d0:	04040793          	addi	a5,s0,64
   126d4:	00f58663          	beq	a1,a5,126e0 <__swsetup_r+0x90>
   126d8:	00048513          	mv	a0,s1
   126dc:	075000ef          	jal	ra,12f50 <_free_r>
   126e0:	02042823          	sw	zero,48(s0)
   126e4:	00c45783          	lhu	a5,12(s0)
   126e8:	00042223          	sw	zero,4(s0)
   126ec:	fdb7f793          	andi	a5,a5,-37
   126f0:	00f41623          	sh	a5,12(s0)
   126f4:	01042783          	lw	a5,16(s0)
   126f8:	00f42023          	sw	a5,0(s0)
   126fc:	00c45783          	lhu	a5,12(s0)
   12700:	0087e793          	ori	a5,a5,8
   12704:	00f41623          	sh	a5,12(s0)
   12708:	01042783          	lw	a5,16(s0)
   1270c:	02079063          	bnez	a5,1272c <__swsetup_r+0xdc>
   12710:	00c45783          	lhu	a5,12(s0)
   12714:	20000713          	li	a4,512
   12718:	2807f793          	andi	a5,a5,640
   1271c:	00e78863          	beq	a5,a4,1272c <__swsetup_r+0xdc>
   12720:	00040593          	mv	a1,s0
   12724:	00048513          	mv	a0,s1
   12728:	1f8030ef          	jal	ra,15920 <__smakebuf_r>
   1272c:	00c45783          	lhu	a5,12(s0)
   12730:	0017f713          	andi	a4,a5,1
   12734:	02070c63          	beqz	a4,1276c <__swsetup_r+0x11c>
   12738:	01442783          	lw	a5,20(s0)
   1273c:	00042423          	sw	zero,8(s0)
   12740:	40f007b3          	neg	a5,a5
   12744:	00f42c23          	sw	a5,24(s0)
   12748:	01042783          	lw	a5,16(s0)
   1274c:	00000513          	li	a0,0
   12750:	f4079ee3          	bnez	a5,126ac <__swsetup_r+0x5c>
   12754:	00c41783          	lh	a5,12(s0)
   12758:	0807f713          	andi	a4,a5,128
   1275c:	f40708e3          	beqz	a4,126ac <__swsetup_r+0x5c>
   12760:	0407e793          	ori	a5,a5,64
   12764:	00f41623          	sh	a5,12(s0)
   12768:	f41ff06f          	j	126a8 <__swsetup_r+0x58>
   1276c:	0027f793          	andi	a5,a5,2
   12770:	00000713          	li	a4,0
   12774:	00079463          	bnez	a5,1277c <__swsetup_r+0x12c>
   12778:	01442703          	lw	a4,20(s0)
   1277c:	00e42423          	sw	a4,8(s0)
   12780:	fc9ff06f          	j	12748 <__swsetup_r+0xf8>

00012784 <__register_exitproc>:
   12784:	81c1a703          	lw	a4,-2020(gp) # 229c4 <_global_impure_ptr>
   12788:	00050313          	mv	t1,a0
   1278c:	14872783          	lw	a5,328(a4)
   12790:	00079663          	bnez	a5,1279c <__register_exitproc+0x18>
   12794:	14c70793          	addi	a5,a4,332
   12798:	14f72423          	sw	a5,328(a4)
   1279c:	0047a703          	lw	a4,4(a5)
   127a0:	01f00813          	li	a6,31
   127a4:	fff00513          	li	a0,-1
   127a8:	04e84a63          	blt	a6,a4,127fc <__register_exitproc+0x78>
   127ac:	00271893          	slli	a7,a4,0x2
   127b0:	02030c63          	beqz	t1,127e8 <__register_exitproc+0x64>
   127b4:	01178533          	add	a0,a5,a7
   127b8:	08c52423          	sw	a2,136(a0)
   127bc:	1887a803          	lw	a6,392(a5)
   127c0:	00100613          	li	a2,1
   127c4:	00e61633          	sll	a2,a2,a4
   127c8:	00c86833          	or	a6,a6,a2
   127cc:	1907a423          	sw	a6,392(a5)
   127d0:	10d52423          	sw	a3,264(a0)
   127d4:	00200693          	li	a3,2
   127d8:	00d31863          	bne	t1,a3,127e8 <__register_exitproc+0x64>
   127dc:	18c7a683          	lw	a3,396(a5)
   127e0:	00c6e633          	or	a2,a3,a2
   127e4:	18c7a623          	sw	a2,396(a5)
   127e8:	00170713          	addi	a4,a4,1
   127ec:	00e7a223          	sw	a4,4(a5)
   127f0:	011787b3          	add	a5,a5,a7
   127f4:	00b7a423          	sw	a1,8(a5)
   127f8:	00000513          	li	a0,0
   127fc:	00008067          	ret

00012800 <__call_exitprocs>:
   12800:	fd010113          	addi	sp,sp,-48
   12804:	01312e23          	sw	s3,28(sp)
   12808:	81c1a983          	lw	s3,-2020(gp) # 229c4 <_global_impure_ptr>
   1280c:	01412c23          	sw	s4,24(sp)
   12810:	01512a23          	sw	s5,20(sp)
   12814:	01612823          	sw	s6,16(sp)
   12818:	02112623          	sw	ra,44(sp)
   1281c:	02812423          	sw	s0,40(sp)
   12820:	02912223          	sw	s1,36(sp)
   12824:	03212023          	sw	s2,32(sp)
   12828:	01712623          	sw	s7,12(sp)
   1282c:	00050a93          	mv	s5,a0
   12830:	00058a13          	mv	s4,a1
   12834:	00100b13          	li	s6,1
   12838:	1489a483          	lw	s1,328(s3)
   1283c:	00048c63          	beqz	s1,12854 <__call_exitprocs+0x54>
   12840:	0044a403          	lw	s0,4(s1)
   12844:	fff40913          	addi	s2,s0,-1
   12848:	00241413          	slli	s0,s0,0x2
   1284c:	00848433          	add	s0,s1,s0
   12850:	02095863          	bgez	s2,12880 <__call_exitprocs+0x80>
   12854:	02c12083          	lw	ra,44(sp)
   12858:	02812403          	lw	s0,40(sp)
   1285c:	02412483          	lw	s1,36(sp)
   12860:	02012903          	lw	s2,32(sp)
   12864:	01c12983          	lw	s3,28(sp)
   12868:	01812a03          	lw	s4,24(sp)
   1286c:	01412a83          	lw	s5,20(sp)
   12870:	01012b03          	lw	s6,16(sp)
   12874:	00c12b83          	lw	s7,12(sp)
   12878:	03010113          	addi	sp,sp,48
   1287c:	00008067          	ret
   12880:	000a0c63          	beqz	s4,12898 <__call_exitprocs+0x98>
   12884:	10442783          	lw	a5,260(s0)
   12888:	01478863          	beq	a5,s4,12898 <__call_exitprocs+0x98>
   1288c:	fff90913          	addi	s2,s2,-1
   12890:	ffc40413          	addi	s0,s0,-4
   12894:	fbdff06f          	j	12850 <__call_exitprocs+0x50>
   12898:	0044a703          	lw	a4,4(s1)
   1289c:	00442783          	lw	a5,4(s0)
   128a0:	fff70713          	addi	a4,a4,-1
   128a4:	03271c63          	bne	a4,s2,128dc <__call_exitprocs+0xdc>
   128a8:	0124a223          	sw	s2,4(s1)
   128ac:	fe0780e3          	beqz	a5,1288c <__call_exitprocs+0x8c>
   128b0:	1884a683          	lw	a3,392(s1)
   128b4:	012b1733          	sll	a4,s6,s2
   128b8:	0044ab83          	lw	s7,4(s1)
   128bc:	00d776b3          	and	a3,a4,a3
   128c0:	02069263          	bnez	a3,128e4 <__call_exitprocs+0xe4>
   128c4:	000780e7          	jalr	a5
   128c8:	0044a703          	lw	a4,4(s1)
   128cc:	1489a783          	lw	a5,328(s3)
   128d0:	f77714e3          	bne	a4,s7,12838 <__call_exitprocs+0x38>
   128d4:	faf48ce3          	beq	s1,a5,1288c <__call_exitprocs+0x8c>
   128d8:	f61ff06f          	j	12838 <__call_exitprocs+0x38>
   128dc:	00042223          	sw	zero,4(s0)
   128e0:	fcdff06f          	j	128ac <__call_exitprocs+0xac>
   128e4:	18c4a683          	lw	a3,396(s1)
   128e8:	08442583          	lw	a1,132(s0)
   128ec:	00d77733          	and	a4,a4,a3
   128f0:	00071863          	bnez	a4,12900 <__call_exitprocs+0x100>
   128f4:	000a8513          	mv	a0,s5
   128f8:	000780e7          	jalr	a5
   128fc:	fcdff06f          	j	128c8 <__call_exitprocs+0xc8>
   12900:	00058513          	mv	a0,a1
   12904:	000780e7          	jalr	a5
   12908:	fc1ff06f          	j	128c8 <__call_exitprocs+0xc8>

0001290c <__sflush_r>:
   1290c:	00c59783          	lh	a5,12(a1)
   12910:	fe010113          	addi	sp,sp,-32
   12914:	00812c23          	sw	s0,24(sp)
   12918:	01079713          	slli	a4,a5,0x10
   1291c:	01075713          	srli	a4,a4,0x10
   12920:	00912a23          	sw	s1,20(sp)
   12924:	00112e23          	sw	ra,28(sp)
   12928:	01212823          	sw	s2,16(sp)
   1292c:	01312623          	sw	s3,12(sp)
   12930:	00877693          	andi	a3,a4,8
   12934:	00050493          	mv	s1,a0
   12938:	00058413          	mv	s0,a1
   1293c:	16069c63          	bnez	a3,12ab4 <__sflush_r+0x1a8>
   12940:	00001737          	lui	a4,0x1
   12944:	80070713          	addi	a4,a4,-2048 # 800 <_start-0xf874>
   12948:	00e7e7b3          	or	a5,a5,a4
   1294c:	0045a703          	lw	a4,4(a1)
   12950:	00f59623          	sh	a5,12(a1)
   12954:	02e04663          	bgtz	a4,12980 <__sflush_r+0x74>
   12958:	03c5a703          	lw	a4,60(a1)
   1295c:	02e04263          	bgtz	a4,12980 <__sflush_r+0x74>
   12960:	00000513          	li	a0,0
   12964:	01c12083          	lw	ra,28(sp)
   12968:	01812403          	lw	s0,24(sp)
   1296c:	01412483          	lw	s1,20(sp)
   12970:	01012903          	lw	s2,16(sp)
   12974:	00c12983          	lw	s3,12(sp)
   12978:	02010113          	addi	sp,sp,32
   1297c:	00008067          	ret
   12980:	02842703          	lw	a4,40(s0)
   12984:	fc070ee3          	beqz	a4,12960 <__sflush_r+0x54>
   12988:	0004a903          	lw	s2,0(s1)
   1298c:	01379693          	slli	a3,a5,0x13
   12990:	0004a023          	sw	zero,0(s1)
   12994:	01c42583          	lw	a1,28(s0)
   12998:	0c06d863          	bgez	a3,12a68 <__sflush_r+0x15c>
   1299c:	05042603          	lw	a2,80(s0)
   129a0:	00c45783          	lhu	a5,12(s0)
   129a4:	0047f793          	andi	a5,a5,4
   129a8:	00078e63          	beqz	a5,129c4 <__sflush_r+0xb8>
   129ac:	00442783          	lw	a5,4(s0)
   129b0:	40f60633          	sub	a2,a2,a5
   129b4:	03042783          	lw	a5,48(s0)
   129b8:	00078663          	beqz	a5,129c4 <__sflush_r+0xb8>
   129bc:	03c42783          	lw	a5,60(s0)
   129c0:	40f60633          	sub	a2,a2,a5
   129c4:	02842783          	lw	a5,40(s0)
   129c8:	01c42583          	lw	a1,28(s0)
   129cc:	00000693          	li	a3,0
   129d0:	00048513          	mv	a0,s1
   129d4:	000780e7          	jalr	a5
   129d8:	fff00793          	li	a5,-1
   129dc:	00c45683          	lhu	a3,12(s0)
   129e0:	02f51263          	bne	a0,a5,12a04 <__sflush_r+0xf8>
   129e4:	0004a783          	lw	a5,0(s1)
   129e8:	01d00713          	li	a4,29
   129ec:	0af76c63          	bltu	a4,a5,12aa4 <__sflush_r+0x198>
   129f0:	20400737          	lui	a4,0x20400
   129f4:	00170713          	addi	a4,a4,1 # 20400001 <__global_pointer$+0x203dce59>
   129f8:	00f75733          	srl	a4,a4,a5
   129fc:	00177713          	andi	a4,a4,1
   12a00:	0a070263          	beqz	a4,12aa4 <__sflush_r+0x198>
   12a04:	fffff7b7          	lui	a5,0xfffff
   12a08:	7ff78793          	addi	a5,a5,2047 # fffff7ff <__global_pointer$+0xfffdc657>
   12a0c:	01042703          	lw	a4,16(s0)
   12a10:	00d7f7b3          	and	a5,a5,a3
   12a14:	01079793          	slli	a5,a5,0x10
   12a18:	4107d793          	srai	a5,a5,0x10
   12a1c:	00e42023          	sw	a4,0(s0)
   12a20:	00f41623          	sh	a5,12(s0)
   12a24:	00042223          	sw	zero,4(s0)
   12a28:	01379713          	slli	a4,a5,0x13
   12a2c:	00075c63          	bgez	a4,12a44 <__sflush_r+0x138>
   12a30:	fff00793          	li	a5,-1
   12a34:	00f51663          	bne	a0,a5,12a40 <__sflush_r+0x134>
   12a38:	0004a783          	lw	a5,0(s1)
   12a3c:	00079463          	bnez	a5,12a44 <__sflush_r+0x138>
   12a40:	04a42823          	sw	a0,80(s0)
   12a44:	03042583          	lw	a1,48(s0)
   12a48:	0124a023          	sw	s2,0(s1)
   12a4c:	f0058ae3          	beqz	a1,12960 <__sflush_r+0x54>
   12a50:	04040793          	addi	a5,s0,64
   12a54:	00f58663          	beq	a1,a5,12a60 <__sflush_r+0x154>
   12a58:	00048513          	mv	a0,s1
   12a5c:	4f4000ef          	jal	ra,12f50 <_free_r>
   12a60:	02042823          	sw	zero,48(s0)
   12a64:	efdff06f          	j	12960 <__sflush_r+0x54>
   12a68:	00000613          	li	a2,0
   12a6c:	00100693          	li	a3,1
   12a70:	00048513          	mv	a0,s1
   12a74:	000700e7          	jalr	a4
   12a78:	fff00793          	li	a5,-1
   12a7c:	00050613          	mv	a2,a0
   12a80:	f2f510e3          	bne	a0,a5,129a0 <__sflush_r+0x94>
   12a84:	0004a783          	lw	a5,0(s1)
   12a88:	f0078ce3          	beqz	a5,129a0 <__sflush_r+0x94>
   12a8c:	01d00713          	li	a4,29
   12a90:	00e78663          	beq	a5,a4,12a9c <__sflush_r+0x190>
   12a94:	01600713          	li	a4,22
   12a98:	06e79263          	bne	a5,a4,12afc <__sflush_r+0x1f0>
   12a9c:	0124a023          	sw	s2,0(s1)
   12aa0:	ec1ff06f          	j	12960 <__sflush_r+0x54>
   12aa4:	0406e793          	ori	a5,a3,64
   12aa8:	00f41623          	sh	a5,12(s0)
   12aac:	fff00513          	li	a0,-1
   12ab0:	eb5ff06f          	j	12964 <__sflush_r+0x58>
   12ab4:	0105a983          	lw	s3,16(a1)
   12ab8:	ea0984e3          	beqz	s3,12960 <__sflush_r+0x54>
   12abc:	0005a903          	lw	s2,0(a1)
   12ac0:	00377713          	andi	a4,a4,3
   12ac4:	0135a023          	sw	s3,0(a1)
   12ac8:	41390933          	sub	s2,s2,s3
   12acc:	00000793          	li	a5,0
   12ad0:	00071463          	bnez	a4,12ad8 <__sflush_r+0x1cc>
   12ad4:	0145a783          	lw	a5,20(a1)
   12ad8:	00f42423          	sw	a5,8(s0)
   12adc:	e92052e3          	blez	s2,12960 <__sflush_r+0x54>
   12ae0:	02442783          	lw	a5,36(s0)
   12ae4:	01c42583          	lw	a1,28(s0)
   12ae8:	00090693          	mv	a3,s2
   12aec:	00098613          	mv	a2,s3
   12af0:	00048513          	mv	a0,s1
   12af4:	000780e7          	jalr	a5
   12af8:	00a04863          	bgtz	a0,12b08 <__sflush_r+0x1fc>
   12afc:	00c45783          	lhu	a5,12(s0)
   12b00:	0407e793          	ori	a5,a5,64
   12b04:	fa5ff06f          	j	12aa8 <__sflush_r+0x19c>
   12b08:	00a989b3          	add	s3,s3,a0
   12b0c:	40a90933          	sub	s2,s2,a0
   12b10:	fcdff06f          	j	12adc <__sflush_r+0x1d0>

00012b14 <_fflush_r>:
   12b14:	fe010113          	addi	sp,sp,-32
   12b18:	00812c23          	sw	s0,24(sp)
   12b1c:	00112e23          	sw	ra,28(sp)
   12b20:	00050413          	mv	s0,a0
   12b24:	00050c63          	beqz	a0,12b3c <_fflush_r+0x28>
   12b28:	03852783          	lw	a5,56(a0)
   12b2c:	00079863          	bnez	a5,12b3c <_fflush_r+0x28>
   12b30:	00b12623          	sw	a1,12(sp)
   12b34:	170000ef          	jal	ra,12ca4 <__sinit>
   12b38:	00c12583          	lw	a1,12(sp)
   12b3c:	00c59783          	lh	a5,12(a1)
   12b40:	00078c63          	beqz	a5,12b58 <_fflush_r+0x44>
   12b44:	00040513          	mv	a0,s0
   12b48:	01812403          	lw	s0,24(sp)
   12b4c:	01c12083          	lw	ra,28(sp)
   12b50:	02010113          	addi	sp,sp,32
   12b54:	db9ff06f          	j	1290c <__sflush_r>
   12b58:	01c12083          	lw	ra,28(sp)
   12b5c:	01812403          	lw	s0,24(sp)
   12b60:	00000513          	li	a0,0
   12b64:	02010113          	addi	sp,sp,32
   12b68:	00008067          	ret

00012b6c <fflush>:
   12b6c:	00050593          	mv	a1,a0
   12b70:	00051a63          	bnez	a0,12b84 <fflush+0x18>
   12b74:	81c1a503          	lw	a0,-2020(gp) # 229c4 <_global_impure_ptr>
   12b78:	000135b7          	lui	a1,0x13
   12b7c:	b1458593          	addi	a1,a1,-1260 # 12b14 <_fflush_r>
   12b80:	32d0006f          	j	136ac <_fwalk_reent>
   12b84:	8201a503          	lw	a0,-2016(gp) # 229c8 <_impure_ptr>
   12b88:	f8dff06f          	j	12b14 <_fflush_r>

00012b8c <__fp_lock>:
   12b8c:	00000513          	li	a0,0
   12b90:	00008067          	ret

00012b94 <_cleanup_r>:
   12b94:	0001b5b7          	lui	a1,0x1b
   12b98:	a1c58593          	addi	a1,a1,-1508 # 1aa1c <_fclose_r>
   12b9c:	3110006f          	j	136ac <_fwalk_reent>

00012ba0 <std.isra.0>:
   12ba0:	ff010113          	addi	sp,sp,-16
   12ba4:	00812423          	sw	s0,8(sp)
   12ba8:	00112623          	sw	ra,12(sp)
   12bac:	00050413          	mv	s0,a0
   12bb0:	00b51623          	sh	a1,12(a0)
   12bb4:	00c51723          	sh	a2,14(a0)
   12bb8:	00052023          	sw	zero,0(a0)
   12bbc:	00052223          	sw	zero,4(a0)
   12bc0:	00052423          	sw	zero,8(a0)
   12bc4:	06052223          	sw	zero,100(a0)
   12bc8:	00052823          	sw	zero,16(a0)
   12bcc:	00052a23          	sw	zero,20(a0)
   12bd0:	00052c23          	sw	zero,24(a0)
   12bd4:	00800613          	li	a2,8
   12bd8:	00000593          	li	a1,0
   12bdc:	05c50513          	addi	a0,a0,92
   12be0:	fb0fd0ef          	jal	ra,10390 <memset>
   12be4:	000177b7          	lui	a5,0x17
   12be8:	7e878793          	addi	a5,a5,2024 # 177e8 <__sread>
   12bec:	02f42023          	sw	a5,32(s0)
   12bf0:	000187b7          	lui	a5,0x18
   12bf4:	84078793          	addi	a5,a5,-1984 # 17840 <__swrite>
   12bf8:	02f42223          	sw	a5,36(s0)
   12bfc:	000187b7          	lui	a5,0x18
   12c00:	8c478793          	addi	a5,a5,-1852 # 178c4 <__sseek>
   12c04:	02f42423          	sw	a5,40(s0)
   12c08:	000187b7          	lui	a5,0x18
   12c0c:	91c78793          	addi	a5,a5,-1764 # 1791c <__sclose>
   12c10:	00842e23          	sw	s0,28(s0)
   12c14:	02f42623          	sw	a5,44(s0)
   12c18:	00c12083          	lw	ra,12(sp)
   12c1c:	00812403          	lw	s0,8(sp)
   12c20:	01010113          	addi	sp,sp,16
   12c24:	00008067          	ret

00012c28 <__fp_unlock>:
   12c28:	00000513          	li	a0,0
   12c2c:	00008067          	ret

00012c30 <__sfmoreglue>:
   12c30:	ff010113          	addi	sp,sp,-16
   12c34:	00912223          	sw	s1,4(sp)
   12c38:	06800613          	li	a2,104
   12c3c:	fff58493          	addi	s1,a1,-1
   12c40:	02c484b3          	mul	s1,s1,a2
   12c44:	01212023          	sw	s2,0(sp)
   12c48:	00058913          	mv	s2,a1
   12c4c:	00812423          	sw	s0,8(sp)
   12c50:	00112623          	sw	ra,12(sp)
   12c54:	07448593          	addi	a1,s1,116
   12c58:	5b9020ef          	jal	ra,15a10 <_malloc_r>
   12c5c:	00050413          	mv	s0,a0
   12c60:	02050063          	beqz	a0,12c80 <__sfmoreglue+0x50>
   12c64:	00052023          	sw	zero,0(a0)
   12c68:	01252223          	sw	s2,4(a0)
   12c6c:	00c50513          	addi	a0,a0,12
   12c70:	00a42423          	sw	a0,8(s0)
   12c74:	06848613          	addi	a2,s1,104
   12c78:	00000593          	li	a1,0
   12c7c:	f14fd0ef          	jal	ra,10390 <memset>
   12c80:	00040513          	mv	a0,s0
   12c84:	00c12083          	lw	ra,12(sp)
   12c88:	00812403          	lw	s0,8(sp)
   12c8c:	00412483          	lw	s1,4(sp)
   12c90:	00012903          	lw	s2,0(sp)
   12c94:	01010113          	addi	sp,sp,16
   12c98:	00008067          	ret

00012c9c <_cleanup>:
   12c9c:	81c1a503          	lw	a0,-2020(gp) # 229c4 <_global_impure_ptr>
   12ca0:	ef5ff06f          	j	12b94 <_cleanup_r>

00012ca4 <__sinit>:
   12ca4:	03852783          	lw	a5,56(a0)
   12ca8:	06079e63          	bnez	a5,12d24 <__sinit+0x80>
   12cac:	ff010113          	addi	sp,sp,-16
   12cb0:	000137b7          	lui	a5,0x13
   12cb4:	00112623          	sw	ra,12(sp)
   12cb8:	00812423          	sw	s0,8(sp)
   12cbc:	b9478793          	addi	a5,a5,-1132 # 12b94 <_cleanup_r>
   12cc0:	02f52e23          	sw	a5,60(a0)
   12cc4:	00300793          	li	a5,3
   12cc8:	2ef52223          	sw	a5,740(a0)
   12ccc:	2ec50793          	addi	a5,a0,748
   12cd0:	00050413          	mv	s0,a0
   12cd4:	2ef52423          	sw	a5,744(a0)
   12cd8:	2e052023          	sw	zero,736(a0)
   12cdc:	00452503          	lw	a0,4(a0)
   12ce0:	00000613          	li	a2,0
   12ce4:	00400593          	li	a1,4
   12ce8:	eb9ff0ef          	jal	ra,12ba0 <std.isra.0>
   12cec:	00842503          	lw	a0,8(s0)
   12cf0:	00100613          	li	a2,1
   12cf4:	00900593          	li	a1,9
   12cf8:	ea9ff0ef          	jal	ra,12ba0 <std.isra.0>
   12cfc:	00c42503          	lw	a0,12(s0)
   12d00:	00200613          	li	a2,2
   12d04:	01200593          	li	a1,18
   12d08:	e99ff0ef          	jal	ra,12ba0 <std.isra.0>
   12d0c:	00100793          	li	a5,1
   12d10:	02f42c23          	sw	a5,56(s0)
   12d14:	00c12083          	lw	ra,12(sp)
   12d18:	00812403          	lw	s0,8(sp)
   12d1c:	01010113          	addi	sp,sp,16
   12d20:	00008067          	ret
   12d24:	00008067          	ret

00012d28 <__sfp>:
   12d28:	ff010113          	addi	sp,sp,-16
   12d2c:	00912223          	sw	s1,4(sp)
   12d30:	81c1a483          	lw	s1,-2020(gp) # 229c4 <_global_impure_ptr>
   12d34:	01212023          	sw	s2,0(sp)
   12d38:	00112623          	sw	ra,12(sp)
   12d3c:	0384a783          	lw	a5,56(s1)
   12d40:	00812423          	sw	s0,8(sp)
   12d44:	00050913          	mv	s2,a0
   12d48:	00079663          	bnez	a5,12d54 <__sfp+0x2c>
   12d4c:	00048513          	mv	a0,s1
   12d50:	f55ff0ef          	jal	ra,12ca4 <__sinit>
   12d54:	2e048493          	addi	s1,s1,736
   12d58:	0084a403          	lw	s0,8(s1)
   12d5c:	0044a783          	lw	a5,4(s1)
   12d60:	fff78793          	addi	a5,a5,-1
   12d64:	0007da63          	bgez	a5,12d78 <__sfp+0x50>
   12d68:	0004a783          	lw	a5,0(s1)
   12d6c:	00078e63          	beqz	a5,12d88 <__sfp+0x60>
   12d70:	0004a483          	lw	s1,0(s1)
   12d74:	fe5ff06f          	j	12d58 <__sfp+0x30>
   12d78:	00c41703          	lh	a4,12(s0)
   12d7c:	04070463          	beqz	a4,12dc4 <__sfp+0x9c>
   12d80:	06840413          	addi	s0,s0,104
   12d84:	fddff06f          	j	12d60 <__sfp+0x38>
   12d88:	00400593          	li	a1,4
   12d8c:	00090513          	mv	a0,s2
   12d90:	ea1ff0ef          	jal	ra,12c30 <__sfmoreglue>
   12d94:	00a4a023          	sw	a0,0(s1)
   12d98:	fc051ce3          	bnez	a0,12d70 <__sfp+0x48>
   12d9c:	00c00793          	li	a5,12
   12da0:	00f92023          	sw	a5,0(s2)
   12da4:	00000413          	li	s0,0
   12da8:	00040513          	mv	a0,s0
   12dac:	00c12083          	lw	ra,12(sp)
   12db0:	00812403          	lw	s0,8(sp)
   12db4:	00412483          	lw	s1,4(sp)
   12db8:	00012903          	lw	s2,0(sp)
   12dbc:	01010113          	addi	sp,sp,16
   12dc0:	00008067          	ret
   12dc4:	ffff07b7          	lui	a5,0xffff0
   12dc8:	00178793          	addi	a5,a5,1 # ffff0001 <__global_pointer$+0xfffcce59>
   12dcc:	06042223          	sw	zero,100(s0)
   12dd0:	00042023          	sw	zero,0(s0)
   12dd4:	00042223          	sw	zero,4(s0)
   12dd8:	00042423          	sw	zero,8(s0)
   12ddc:	00f42623          	sw	a5,12(s0)
   12de0:	00042823          	sw	zero,16(s0)
   12de4:	00042a23          	sw	zero,20(s0)
   12de8:	00042c23          	sw	zero,24(s0)
   12dec:	00800613          	li	a2,8
   12df0:	00000593          	li	a1,0
   12df4:	05c40513          	addi	a0,s0,92
   12df8:	d98fd0ef          	jal	ra,10390 <memset>
   12dfc:	02042823          	sw	zero,48(s0)
   12e00:	02042a23          	sw	zero,52(s0)
   12e04:	04042223          	sw	zero,68(s0)
   12e08:	04042423          	sw	zero,72(s0)
   12e0c:	f9dff06f          	j	12da8 <__sfp+0x80>

00012e10 <__sfp_lock_acquire>:
   12e10:	00008067          	ret

00012e14 <__sfp_lock_release>:
   12e14:	00008067          	ret

00012e18 <__sinit_lock_acquire>:
   12e18:	00008067          	ret

00012e1c <__sinit_lock_release>:
   12e1c:	00008067          	ret

00012e20 <__fp_lock_all>:
   12e20:	8201a503          	lw	a0,-2016(gp) # 229c8 <_impure_ptr>
   12e24:	000135b7          	lui	a1,0x13
   12e28:	b8c58593          	addi	a1,a1,-1140 # 12b8c <__fp_lock>
   12e2c:	7e00006f          	j	1360c <_fwalk>

00012e30 <__fp_unlock_all>:
   12e30:	8201a503          	lw	a0,-2016(gp) # 229c8 <_impure_ptr>
   12e34:	000135b7          	lui	a1,0x13
   12e38:	c2858593          	addi	a1,a1,-984 # 12c28 <__fp_unlock>
   12e3c:	7d00006f          	j	1360c <_fwalk>

00012e40 <_malloc_trim_r>:
   12e40:	fd010113          	addi	sp,sp,-48
   12e44:	03212023          	sw	s2,32(sp)
   12e48:	00022937          	lui	s2,0x22
   12e4c:	02812423          	sw	s0,40(sp)
   12e50:	02912223          	sw	s1,36(sp)
   12e54:	01312e23          	sw	s3,28(sp)
   12e58:	00b12623          	sw	a1,12(sp)
   12e5c:	02112623          	sw	ra,44(sp)
   12e60:	00050993          	mv	s3,a0
   12e64:	59c90913          	addi	s2,s2,1436 # 2259c <__malloc_av_>
   12e68:	3c4030ef          	jal	ra,1622c <__malloc_lock>
   12e6c:	00892783          	lw	a5,8(s2)
   12e70:	00c12583          	lw	a1,12(sp)
   12e74:	0047a483          	lw	s1,4(a5)
   12e78:	000017b7          	lui	a5,0x1
   12e7c:	fef78413          	addi	s0,a5,-17 # fef <_start-0xf085>
   12e80:	ffc4f493          	andi	s1,s1,-4
   12e84:	40b40433          	sub	s0,s0,a1
   12e88:	00940433          	add	s0,s0,s1
   12e8c:	00c45413          	srli	s0,s0,0xc
   12e90:	fff40413          	addi	s0,s0,-1
   12e94:	00c41413          	slli	s0,s0,0xc
   12e98:	02f45663          	ble	a5,s0,12ec4 <_malloc_trim_r+0x84>
   12e9c:	00098513          	mv	a0,s3
   12ea0:	390030ef          	jal	ra,16230 <__malloc_unlock>
   12ea4:	00000513          	li	a0,0
   12ea8:	02c12083          	lw	ra,44(sp)
   12eac:	02812403          	lw	s0,40(sp)
   12eb0:	02412483          	lw	s1,36(sp)
   12eb4:	02012903          	lw	s2,32(sp)
   12eb8:	01c12983          	lw	s3,28(sp)
   12ebc:	03010113          	addi	sp,sp,48
   12ec0:	00008067          	ret
   12ec4:	00000593          	li	a1,0
   12ec8:	00098513          	mv	a0,s3
   12ecc:	750040ef          	jal	ra,1761c <_sbrk_r>
   12ed0:	00892783          	lw	a5,8(s2)
   12ed4:	009787b3          	add	a5,a5,s1
   12ed8:	fcf512e3          	bne	a0,a5,12e9c <_malloc_trim_r+0x5c>
   12edc:	408005b3          	neg	a1,s0
   12ee0:	00098513          	mv	a0,s3
   12ee4:	738040ef          	jal	ra,1761c <_sbrk_r>
   12ee8:	fff00793          	li	a5,-1
   12eec:	02f51c63          	bne	a0,a5,12f24 <_malloc_trim_r+0xe4>
   12ef0:	00000593          	li	a1,0
   12ef4:	00098513          	mv	a0,s3
   12ef8:	724040ef          	jal	ra,1761c <_sbrk_r>
   12efc:	00892703          	lw	a4,8(s2)
   12f00:	00f00693          	li	a3,15
   12f04:	40e507b3          	sub	a5,a0,a4
   12f08:	f8f6dae3          	ble	a5,a3,12e9c <_malloc_trim_r+0x5c>
   12f0c:	8241a683          	lw	a3,-2012(gp) # 229cc <__malloc_sbrk_base>
   12f10:	0017e793          	ori	a5,a5,1
   12f14:	00f72223          	sw	a5,4(a4)
   12f18:	40d50533          	sub	a0,a0,a3
   12f1c:	84a1ae23          	sw	a0,-1956(gp) # 22a04 <__malloc_current_mallinfo>
   12f20:	f7dff06f          	j	12e9c <_malloc_trim_r+0x5c>
   12f24:	00892783          	lw	a5,8(s2)
   12f28:	408484b3          	sub	s1,s1,s0
   12f2c:	0014e493          	ori	s1,s1,1
   12f30:	0097a223          	sw	s1,4(a5)
   12f34:	85c1a783          	lw	a5,-1956(gp) # 22a04 <__malloc_current_mallinfo>
   12f38:	00098513          	mv	a0,s3
   12f3c:	40878433          	sub	s0,a5,s0
   12f40:	8481ae23          	sw	s0,-1956(gp) # 22a04 <__malloc_current_mallinfo>
   12f44:	2ec030ef          	jal	ra,16230 <__malloc_unlock>
   12f48:	00100513          	li	a0,1
   12f4c:	f5dff06f          	j	12ea8 <_malloc_trim_r+0x68>

00012f50 <_free_r>:
   12f50:	24058c63          	beqz	a1,131a8 <_free_r+0x258>
   12f54:	ff010113          	addi	sp,sp,-16
   12f58:	00812423          	sw	s0,8(sp)
   12f5c:	00912223          	sw	s1,4(sp)
   12f60:	00050413          	mv	s0,a0
   12f64:	00058493          	mv	s1,a1
   12f68:	00112623          	sw	ra,12(sp)
   12f6c:	2c0030ef          	jal	ra,1622c <__malloc_lock>
   12f70:	ffc4a503          	lw	a0,-4(s1)
   12f74:	00022637          	lui	a2,0x22
   12f78:	ff848693          	addi	a3,s1,-8
   12f7c:	ffe57793          	andi	a5,a0,-2
   12f80:	59c60813          	addi	a6,a2,1436 # 2259c <__malloc_av_>
   12f84:	00f685b3          	add	a1,a3,a5
   12f88:	0045a703          	lw	a4,4(a1)
   12f8c:	00882803          	lw	a6,8(a6)
   12f90:	59c60613          	addi	a2,a2,1436
   12f94:	ffc77713          	andi	a4,a4,-4
   12f98:	00157513          	andi	a0,a0,1
   12f9c:	06b81063          	bne	a6,a1,12ffc <_free_r+0xac>
   12fa0:	00e787b3          	add	a5,a5,a4
   12fa4:	02051063          	bnez	a0,12fc4 <_free_r+0x74>
   12fa8:	ff84a703          	lw	a4,-8(s1)
   12fac:	40e686b3          	sub	a3,a3,a4
   12fb0:	0086a583          	lw	a1,8(a3)
   12fb4:	00e787b3          	add	a5,a5,a4
   12fb8:	00c6a703          	lw	a4,12(a3)
   12fbc:	00e5a623          	sw	a4,12(a1)
   12fc0:	00b72423          	sw	a1,8(a4)
   12fc4:	0017e713          	ori	a4,a5,1
   12fc8:	00e6a223          	sw	a4,4(a3)
   12fcc:	8281a703          	lw	a4,-2008(gp) # 229d0 <__malloc_trim_threshold>
   12fd0:	00d62423          	sw	a3,8(a2)
   12fd4:	00e7e863          	bltu	a5,a4,12fe4 <_free_r+0x94>
   12fd8:	8381a583          	lw	a1,-1992(gp) # 229e0 <__malloc_top_pad>
   12fdc:	00040513          	mv	a0,s0
   12fe0:	e61ff0ef          	jal	ra,12e40 <_malloc_trim_r>
   12fe4:	00040513          	mv	a0,s0
   12fe8:	00812403          	lw	s0,8(sp)
   12fec:	00c12083          	lw	ra,12(sp)
   12ff0:	00412483          	lw	s1,4(sp)
   12ff4:	01010113          	addi	sp,sp,16
   12ff8:	2380306f          	j	16230 <__malloc_unlock>
   12ffc:	00e5a223          	sw	a4,4(a1)
   13000:	00000813          	li	a6,0
   13004:	02051663          	bnez	a0,13030 <_free_r+0xe0>
   13008:	ff84a503          	lw	a0,-8(s1)
   1300c:	000228b7          	lui	a7,0x22
   13010:	5a488893          	addi	a7,a7,1444 # 225a4 <__malloc_av_+0x8>
   13014:	40a686b3          	sub	a3,a3,a0
   13018:	00a787b3          	add	a5,a5,a0
   1301c:	0086a503          	lw	a0,8(a3)
   13020:	0b150663          	beq	a0,a7,130cc <_free_r+0x17c>
   13024:	00c6a883          	lw	a7,12(a3)
   13028:	01152623          	sw	a7,12(a0)
   1302c:	00a8a423          	sw	a0,8(a7)
   13030:	00e58533          	add	a0,a1,a4
   13034:	00452503          	lw	a0,4(a0)
   13038:	00157513          	andi	a0,a0,1
   1303c:	02051863          	bnez	a0,1306c <_free_r+0x11c>
   13040:	00e787b3          	add	a5,a5,a4
   13044:	0085a703          	lw	a4,8(a1)
   13048:	08081663          	bnez	a6,130d4 <_free_r+0x184>
   1304c:	00022537          	lui	a0,0x22
   13050:	5a450513          	addi	a0,a0,1444 # 225a4 <__malloc_av_+0x8>
   13054:	08a71063          	bne	a4,a0,130d4 <_free_r+0x184>
   13058:	00d62a23          	sw	a3,20(a2)
   1305c:	00d62823          	sw	a3,16(a2)
   13060:	00e6a623          	sw	a4,12(a3)
   13064:	00e6a423          	sw	a4,8(a3)
   13068:	00100813          	li	a6,1
   1306c:	0017e713          	ori	a4,a5,1
   13070:	00e6a223          	sw	a4,4(a3)
   13074:	00f68733          	add	a4,a3,a5
   13078:	00f72023          	sw	a5,0(a4)
   1307c:	f60814e3          	bnez	a6,12fe4 <_free_r+0x94>
   13080:	1ff00713          	li	a4,511
   13084:	06f76063          	bltu	a4,a5,130e4 <_free_r+0x194>
   13088:	0037d793          	srli	a5,a5,0x3
   1308c:	4027d593          	srai	a1,a5,0x2
   13090:	00100713          	li	a4,1
   13094:	00b71733          	sll	a4,a4,a1
   13098:	00462583          	lw	a1,4(a2)
   1309c:	00178793          	addi	a5,a5,1
   130a0:	00379793          	slli	a5,a5,0x3
   130a4:	00f607b3          	add	a5,a2,a5
   130a8:	00b76733          	or	a4,a4,a1
   130ac:	00e62223          	sw	a4,4(a2)
   130b0:	0007a703          	lw	a4,0(a5)
   130b4:	ff878613          	addi	a2,a5,-8
   130b8:	00c6a623          	sw	a2,12(a3)
   130bc:	00e6a423          	sw	a4,8(a3)
   130c0:	00d7a023          	sw	a3,0(a5)
   130c4:	00d72623          	sw	a3,12(a4)
   130c8:	f1dff06f          	j	12fe4 <_free_r+0x94>
   130cc:	00100813          	li	a6,1
   130d0:	f61ff06f          	j	13030 <_free_r+0xe0>
   130d4:	00c5a583          	lw	a1,12(a1)
   130d8:	00b72623          	sw	a1,12(a4)
   130dc:	00e5a423          	sw	a4,8(a1)
   130e0:	f8dff06f          	j	1306c <_free_r+0x11c>
   130e4:	0097d593          	srli	a1,a5,0x9
   130e8:	00400713          	li	a4,4
   130ec:	04b76863          	bltu	a4,a1,1313c <_free_r+0x1ec>
   130f0:	0067d713          	srli	a4,a5,0x6
   130f4:	03870713          	addi	a4,a4,56
   130f8:	00170593          	addi	a1,a4,1
   130fc:	00359593          	slli	a1,a1,0x3
   13100:	00b605b3          	add	a1,a2,a1
   13104:	ff858513          	addi	a0,a1,-8
   13108:	0005a583          	lw	a1,0(a1)
   1310c:	08b51463          	bne	a0,a1,13194 <_free_r+0x244>
   13110:	00100793          	li	a5,1
   13114:	40275713          	srai	a4,a4,0x2
   13118:	00e79733          	sll	a4,a5,a4
   1311c:	00462783          	lw	a5,4(a2)
   13120:	00f76733          	or	a4,a4,a5
   13124:	00e62223          	sw	a4,4(a2)
   13128:	00a6a623          	sw	a0,12(a3)
   1312c:	00b6a423          	sw	a1,8(a3)
   13130:	00d52423          	sw	a3,8(a0)
   13134:	00d5a623          	sw	a3,12(a1)
   13138:	eadff06f          	j	12fe4 <_free_r+0x94>
   1313c:	01400713          	li	a4,20
   13140:	00b76663          	bltu	a4,a1,1314c <_free_r+0x1fc>
   13144:	05b58713          	addi	a4,a1,91
   13148:	fb1ff06f          	j	130f8 <_free_r+0x1a8>
   1314c:	05400713          	li	a4,84
   13150:	00b76863          	bltu	a4,a1,13160 <_free_r+0x210>
   13154:	00c7d713          	srli	a4,a5,0xc
   13158:	06e70713          	addi	a4,a4,110
   1315c:	f9dff06f          	j	130f8 <_free_r+0x1a8>
   13160:	15400713          	li	a4,340
   13164:	00b76863          	bltu	a4,a1,13174 <_free_r+0x224>
   13168:	00f7d713          	srli	a4,a5,0xf
   1316c:	07770713          	addi	a4,a4,119
   13170:	f89ff06f          	j	130f8 <_free_r+0x1a8>
   13174:	55400513          	li	a0,1364
   13178:	07e00713          	li	a4,126
   1317c:	f6b56ee3          	bltu	a0,a1,130f8 <_free_r+0x1a8>
   13180:	0127d713          	srli	a4,a5,0x12
   13184:	07c70713          	addi	a4,a4,124
   13188:	f71ff06f          	j	130f8 <_free_r+0x1a8>
   1318c:	0085a583          	lw	a1,8(a1)
   13190:	00b50863          	beq	a0,a1,131a0 <_free_r+0x250>
   13194:	0045a703          	lw	a4,4(a1)
   13198:	ffc77713          	andi	a4,a4,-4
   1319c:	fee7e8e3          	bltu	a5,a4,1318c <_free_r+0x23c>
   131a0:	00c5a503          	lw	a0,12(a1)
   131a4:	f85ff06f          	j	13128 <_free_r+0x1d8>
   131a8:	00008067          	ret

000131ac <__sfvwrite_r>:
   131ac:	00862783          	lw	a5,8(a2)
   131b0:	00079863          	bnez	a5,131c0 <__sfvwrite_r+0x14>
   131b4:	00000793          	li	a5,0
   131b8:	00078513          	mv	a0,a5
   131bc:	00008067          	ret
   131c0:	00c5d783          	lhu	a5,12(a1)
   131c4:	fb010113          	addi	sp,sp,-80
   131c8:	04812423          	sw	s0,72(sp)
   131cc:	05212023          	sw	s2,64(sp)
   131d0:	03512a23          	sw	s5,52(sp)
   131d4:	04112623          	sw	ra,76(sp)
   131d8:	04912223          	sw	s1,68(sp)
   131dc:	03312e23          	sw	s3,60(sp)
   131e0:	03412c23          	sw	s4,56(sp)
   131e4:	03612823          	sw	s6,48(sp)
   131e8:	03712623          	sw	s7,44(sp)
   131ec:	03812423          	sw	s8,40(sp)
   131f0:	03912223          	sw	s9,36(sp)
   131f4:	03a12023          	sw	s10,32(sp)
   131f8:	01b12e23          	sw	s11,28(sp)
   131fc:	0087f793          	andi	a5,a5,8
   13200:	00060a93          	mv	s5,a2
   13204:	00058413          	mv	s0,a1
   13208:	00050913          	mv	s2,a0
   1320c:	0e078263          	beqz	a5,132f0 <__sfvwrite_r+0x144>
   13210:	0105a783          	lw	a5,16(a1)
   13214:	0c078e63          	beqz	a5,132f0 <__sfvwrite_r+0x144>
   13218:	00c45783          	lhu	a5,12(s0)
   1321c:	000aaa03          	lw	s4,0(s5)
   13220:	0027f713          	andi	a4,a5,2
   13224:	16071a63          	bnez	a4,13398 <__sfvwrite_r+0x1ec>
   13228:	0017f793          	andi	a5,a5,1
   1322c:	20078463          	beqz	a5,13434 <__sfvwrite_r+0x288>
   13230:	00000b93          	li	s7,0
   13234:	00000513          	li	a0,0
   13238:	00000b13          	li	s6,0
   1323c:	00000993          	li	s3,0
   13240:	36098463          	beqz	s3,135a8 <__sfvwrite_r+0x3fc>
   13244:	02051263          	bnez	a0,13268 <__sfvwrite_r+0xbc>
   13248:	00098613          	mv	a2,s3
   1324c:	00a00593          	li	a1,10
   13250:	000b0513          	mv	a0,s6
   13254:	679020ef          	jal	ra,160cc <memchr>
   13258:	00198b93          	addi	s7,s3,1
   1325c:	00050663          	beqz	a0,13268 <__sfvwrite_r+0xbc>
   13260:	00150513          	addi	a0,a0,1
   13264:	41650bb3          	sub	s7,a0,s6
   13268:	000b8c13          	mv	s8,s7
   1326c:	0179f463          	bleu	s7,s3,13274 <__sfvwrite_r+0xc8>
   13270:	00098c13          	mv	s8,s3
   13274:	00042503          	lw	a0,0(s0)
   13278:	01042783          	lw	a5,16(s0)
   1327c:	01442683          	lw	a3,20(s0)
   13280:	32a7fe63          	bleu	a0,a5,135bc <__sfvwrite_r+0x410>
   13284:	00842483          	lw	s1,8(s0)
   13288:	009684b3          	add	s1,a3,s1
   1328c:	3384d863          	ble	s8,s1,135bc <__sfvwrite_r+0x410>
   13290:	000b0593          	mv	a1,s6
   13294:	00048613          	mv	a2,s1
   13298:	741020ef          	jal	ra,161d8 <memmove>
   1329c:	00042783          	lw	a5,0(s0)
   132a0:	00040593          	mv	a1,s0
   132a4:	00090513          	mv	a0,s2
   132a8:	009787b3          	add	a5,a5,s1
   132ac:	00f42023          	sw	a5,0(s0)
   132b0:	865ff0ef          	jal	ra,12b14 <_fflush_r>
   132b4:	16051663          	bnez	a0,13420 <__sfvwrite_r+0x274>
   132b8:	409b8bb3          	sub	s7,s7,s1
   132bc:	00100513          	li	a0,1
   132c0:	000b9a63          	bnez	s7,132d4 <__sfvwrite_r+0x128>
   132c4:	00040593          	mv	a1,s0
   132c8:	00090513          	mv	a0,s2
   132cc:	849ff0ef          	jal	ra,12b14 <_fflush_r>
   132d0:	14051863          	bnez	a0,13420 <__sfvwrite_r+0x274>
   132d4:	008aa783          	lw	a5,8(s5)
   132d8:	009b0b33          	add	s6,s6,s1
   132dc:	409989b3          	sub	s3,s3,s1
   132e0:	409784b3          	sub	s1,a5,s1
   132e4:	009aa423          	sw	s1,8(s5)
   132e8:	f4049ce3          	bnez	s1,13240 <__sfvwrite_r+0x94>
   132ec:	0680006f          	j	13354 <__sfvwrite_r+0x1a8>
   132f0:	00040593          	mv	a1,s0
   132f4:	00090513          	mv	a0,s2
   132f8:	b58ff0ef          	jal	ra,12650 <__swsetup_r>
   132fc:	fff00793          	li	a5,-1
   13300:	f0050ce3          	beqz	a0,13218 <__sfvwrite_r+0x6c>
   13304:	0540006f          	j	13358 <__sfvwrite_r+0x1ac>
   13308:	000a2983          	lw	s3,0(s4)
   1330c:	004a2483          	lw	s1,4(s4)
   13310:	008a0a13          	addi	s4,s4,8
   13314:	fe048ae3          	beqz	s1,13308 <__sfvwrite_r+0x15c>
   13318:	00048693          	mv	a3,s1
   1331c:	009b7463          	bleu	s1,s6,13324 <__sfvwrite_r+0x178>
   13320:	000b0693          	mv	a3,s6
   13324:	02442783          	lw	a5,36(s0)
   13328:	01c42583          	lw	a1,28(s0)
   1332c:	00098613          	mv	a2,s3
   13330:	00090513          	mv	a0,s2
   13334:	000780e7          	jalr	a5
   13338:	0ea05463          	blez	a0,13420 <__sfvwrite_r+0x274>
   1333c:	008aa783          	lw	a5,8(s5)
   13340:	00a989b3          	add	s3,s3,a0
   13344:	40a484b3          	sub	s1,s1,a0
   13348:	40a78533          	sub	a0,a5,a0
   1334c:	00aaa423          	sw	a0,8(s5)
   13350:	fc0512e3          	bnez	a0,13314 <__sfvwrite_r+0x168>
   13354:	00000793          	li	a5,0
   13358:	04c12083          	lw	ra,76(sp)
   1335c:	04812403          	lw	s0,72(sp)
   13360:	04412483          	lw	s1,68(sp)
   13364:	04012903          	lw	s2,64(sp)
   13368:	03c12983          	lw	s3,60(sp)
   1336c:	03812a03          	lw	s4,56(sp)
   13370:	03412a83          	lw	s5,52(sp)
   13374:	03012b03          	lw	s6,48(sp)
   13378:	02c12b83          	lw	s7,44(sp)
   1337c:	02812c03          	lw	s8,40(sp)
   13380:	02412c83          	lw	s9,36(sp)
   13384:	02012d03          	lw	s10,32(sp)
   13388:	01c12d83          	lw	s11,28(sp)
   1338c:	00078513          	mv	a0,a5
   13390:	05010113          	addi	sp,sp,80
   13394:	00008067          	ret
   13398:	80000b37          	lui	s6,0x80000
   1339c:	00000993          	li	s3,0
   133a0:	00000493          	li	s1,0
   133a4:	c00b4b13          	xori	s6,s6,-1024
   133a8:	f6dff06f          	j	13314 <__sfvwrite_r+0x168>
   133ac:	000a2b03          	lw	s6,0(s4)
   133b0:	004a2483          	lw	s1,4(s4)
   133b4:	008a0a13          	addi	s4,s4,8
   133b8:	fe048ae3          	beqz	s1,133ac <__sfvwrite_r+0x200>
   133bc:	00c45703          	lhu	a4,12(s0)
   133c0:	00842783          	lw	a5,8(s0)
   133c4:	00042503          	lw	a0,0(s0)
   133c8:	20077693          	andi	a3,a4,512
   133cc:	14068863          	beqz	a3,1351c <__sfvwrite_r+0x370>
   133d0:	0cf4e263          	bltu	s1,a5,13494 <__sfvwrite_r+0x2e8>
   133d4:	48077693          	andi	a3,a4,1152
   133d8:	0a068e63          	beqz	a3,13494 <__sfvwrite_r+0x2e8>
   133dc:	01442d83          	lw	s11,20(s0)
   133e0:	01042583          	lw	a1,16(s0)
   133e4:	03bc8db3          	mul	s11,s9,s11
   133e8:	40b509b3          	sub	s3,a0,a1
   133ec:	00198793          	addi	a5,s3,1
   133f0:	009787b3          	add	a5,a5,s1
   133f4:	03adcdb3          	div	s11,s11,s10
   133f8:	00fdf463          	bleu	a5,s11,13400 <__sfvwrite_r+0x254>
   133fc:	00078d93          	mv	s11,a5
   13400:	40077713          	andi	a4,a4,1024
   13404:	0e070463          	beqz	a4,134ec <__sfvwrite_r+0x340>
   13408:	000d8593          	mv	a1,s11
   1340c:	00090513          	mv	a0,s2
   13410:	600020ef          	jal	ra,15a10 <_malloc_r>
   13414:	04051063          	bnez	a0,13454 <__sfvwrite_r+0x2a8>
   13418:	00c00793          	li	a5,12
   1341c:	00f92023          	sw	a5,0(s2)
   13420:	00c45783          	lhu	a5,12(s0)
   13424:	0407e793          	ori	a5,a5,64
   13428:	00f41623          	sh	a5,12(s0)
   1342c:	fff00793          	li	a5,-1
   13430:	f29ff06f          	j	13358 <__sfvwrite_r+0x1ac>
   13434:	80000bb7          	lui	s7,0x80000
   13438:	ffebcc13          	xori	s8,s7,-2
   1343c:	00000b13          	li	s6,0
   13440:	00000493          	li	s1,0
   13444:	fffbcb93          	not	s7,s7
   13448:	00300c93          	li	s9,3
   1344c:	00200d13          	li	s10,2
   13450:	f69ff06f          	j	133b8 <__sfvwrite_r+0x20c>
   13454:	01042583          	lw	a1,16(s0)
   13458:	00098613          	mv	a2,s3
   1345c:	00a12623          	sw	a0,12(sp)
   13460:	491020ef          	jal	ra,160f0 <memcpy>
   13464:	00c45703          	lhu	a4,12(s0)
   13468:	00c12783          	lw	a5,12(sp)
   1346c:	b7f77713          	andi	a4,a4,-1153
   13470:	08076713          	ori	a4,a4,128
   13474:	00e41623          	sh	a4,12(s0)
   13478:	00f42823          	sw	a5,16(s0)
   1347c:	01b42a23          	sw	s11,20(s0)
   13480:	013787b3          	add	a5,a5,s3
   13484:	413d8db3          	sub	s11,s11,s3
   13488:	00f42023          	sw	a5,0(s0)
   1348c:	01b42423          	sw	s11,8(s0)
   13490:	00048793          	mv	a5,s1
   13494:	00048993          	mv	s3,s1
   13498:	00f4f463          	bleu	a5,s1,134a0 <__sfvwrite_r+0x2f4>
   1349c:	00048793          	mv	a5,s1
   134a0:	00042503          	lw	a0,0(s0)
   134a4:	00078613          	mv	a2,a5
   134a8:	000b0593          	mv	a1,s6
   134ac:	00f12623          	sw	a5,12(sp)
   134b0:	529020ef          	jal	ra,161d8 <memmove>
   134b4:	00842703          	lw	a4,8(s0)
   134b8:	00c12783          	lw	a5,12(sp)
   134bc:	40f70733          	sub	a4,a4,a5
   134c0:	00e42423          	sw	a4,8(s0)
   134c4:	00042703          	lw	a4,0(s0)
   134c8:	00f707b3          	add	a5,a4,a5
   134cc:	00f42023          	sw	a5,0(s0)
   134d0:	008aa783          	lw	a5,8(s5)
   134d4:	013b0b33          	add	s6,s6,s3
   134d8:	413484b3          	sub	s1,s1,s3
   134dc:	413789b3          	sub	s3,a5,s3
   134e0:	013aa423          	sw	s3,8(s5)
   134e4:	ec099ae3          	bnez	s3,133b8 <__sfvwrite_r+0x20c>
   134e8:	e6dff06f          	j	13354 <__sfvwrite_r+0x1a8>
   134ec:	000d8613          	mv	a2,s11
   134f0:	00090513          	mv	a0,s2
   134f4:	3d1030ef          	jal	ra,170c4 <_realloc_r>
   134f8:	00050793          	mv	a5,a0
   134fc:	f6051ee3          	bnez	a0,13478 <__sfvwrite_r+0x2cc>
   13500:	01042583          	lw	a1,16(s0)
   13504:	00090513          	mv	a0,s2
   13508:	a49ff0ef          	jal	ra,12f50 <_free_r>
   1350c:	00c45783          	lhu	a5,12(s0)
   13510:	f7f7f793          	andi	a5,a5,-129
   13514:	00f41623          	sh	a5,12(s0)
   13518:	f01ff06f          	j	13418 <__sfvwrite_r+0x26c>
   1351c:	01042703          	lw	a4,16(s0)
   13520:	00a76663          	bltu	a4,a0,1352c <__sfvwrite_r+0x380>
   13524:	01442683          	lw	a3,20(s0)
   13528:	04d4f663          	bleu	a3,s1,13574 <__sfvwrite_r+0x3c8>
   1352c:	00078993          	mv	s3,a5
   13530:	00f4f463          	bleu	a5,s1,13538 <__sfvwrite_r+0x38c>
   13534:	00048993          	mv	s3,s1
   13538:	00098613          	mv	a2,s3
   1353c:	000b0593          	mv	a1,s6
   13540:	499020ef          	jal	ra,161d8 <memmove>
   13544:	00842783          	lw	a5,8(s0)
   13548:	00042703          	lw	a4,0(s0)
   1354c:	413787b3          	sub	a5,a5,s3
   13550:	01370733          	add	a4,a4,s3
   13554:	00f42423          	sw	a5,8(s0)
   13558:	00e42023          	sw	a4,0(s0)
   1355c:	f6079ae3          	bnez	a5,134d0 <__sfvwrite_r+0x324>
   13560:	00040593          	mv	a1,s0
   13564:	00090513          	mv	a0,s2
   13568:	dacff0ef          	jal	ra,12b14 <_fflush_r>
   1356c:	f60502e3          	beqz	a0,134d0 <__sfvwrite_r+0x324>
   13570:	eb1ff06f          	j	13420 <__sfvwrite_r+0x274>
   13574:	000b8793          	mv	a5,s7
   13578:	009c6463          	bltu	s8,s1,13580 <__sfvwrite_r+0x3d4>
   1357c:	00048793          	mv	a5,s1
   13580:	02d7c7b3          	div	a5,a5,a3
   13584:	02442703          	lw	a4,36(s0)
   13588:	01c42583          	lw	a1,28(s0)
   1358c:	000b0613          	mv	a2,s6
   13590:	00090513          	mv	a0,s2
   13594:	02d786b3          	mul	a3,a5,a3
   13598:	000700e7          	jalr	a4
   1359c:	00050993          	mv	s3,a0
   135a0:	f2a048e3          	bgtz	a0,134d0 <__sfvwrite_r+0x324>
   135a4:	e7dff06f          	j	13420 <__sfvwrite_r+0x274>
   135a8:	000a2b03          	lw	s6,0(s4)
   135ac:	004a2983          	lw	s3,4(s4)
   135b0:	00000513          	li	a0,0
   135b4:	008a0a13          	addi	s4,s4,8
   135b8:	c89ff06f          	j	13240 <__sfvwrite_r+0x94>
   135bc:	02dc4263          	blt	s8,a3,135e0 <__sfvwrite_r+0x434>
   135c0:	02442783          	lw	a5,36(s0)
   135c4:	01c42583          	lw	a1,28(s0)
   135c8:	000b0613          	mv	a2,s6
   135cc:	00090513          	mv	a0,s2
   135d0:	000780e7          	jalr	a5
   135d4:	00050493          	mv	s1,a0
   135d8:	cea040e3          	bgtz	a0,132b8 <__sfvwrite_r+0x10c>
   135dc:	e45ff06f          	j	13420 <__sfvwrite_r+0x274>
   135e0:	000c0613          	mv	a2,s8
   135e4:	000b0593          	mv	a1,s6
   135e8:	3f1020ef          	jal	ra,161d8 <memmove>
   135ec:	00842783          	lw	a5,8(s0)
   135f0:	000c0493          	mv	s1,s8
   135f4:	418787b3          	sub	a5,a5,s8
   135f8:	00f42423          	sw	a5,8(s0)
   135fc:	00042783          	lw	a5,0(s0)
   13600:	018787b3          	add	a5,a5,s8
   13604:	00f42023          	sw	a5,0(s0)
   13608:	cb1ff06f          	j	132b8 <__sfvwrite_r+0x10c>

0001360c <_fwalk>:
   1360c:	fd010113          	addi	sp,sp,-48
   13610:	02812423          	sw	s0,40(sp)
   13614:	03212023          	sw	s2,32(sp)
   13618:	01412c23          	sw	s4,24(sp)
   1361c:	01512a23          	sw	s5,20(sp)
   13620:	02112623          	sw	ra,44(sp)
   13624:	02912223          	sw	s1,36(sp)
   13628:	01312e23          	sw	s3,28(sp)
   1362c:	2e050413          	addi	s0,a0,736
   13630:	00000913          	li	s2,0
   13634:	00100a13          	li	s4,1
   13638:	fff00a93          	li	s5,-1
   1363c:	02041663          	bnez	s0,13668 <_fwalk+0x5c>
   13640:	02c12083          	lw	ra,44(sp)
   13644:	02812403          	lw	s0,40(sp)
   13648:	00090513          	mv	a0,s2
   1364c:	02412483          	lw	s1,36(sp)
   13650:	02012903          	lw	s2,32(sp)
   13654:	01c12983          	lw	s3,28(sp)
   13658:	01812a03          	lw	s4,24(sp)
   1365c:	01412a83          	lw	s5,20(sp)
   13660:	03010113          	addi	sp,sp,48
   13664:	00008067          	ret
   13668:	00842483          	lw	s1,8(s0)
   1366c:	00442983          	lw	s3,4(s0)
   13670:	fff98993          	addi	s3,s3,-1
   13674:	0009d663          	bgez	s3,13680 <_fwalk+0x74>
   13678:	00042403          	lw	s0,0(s0)
   1367c:	fc1ff06f          	j	1363c <_fwalk+0x30>
   13680:	00c4d783          	lhu	a5,12(s1)
   13684:	02fa7063          	bleu	a5,s4,136a4 <_fwalk+0x98>
   13688:	00e49783          	lh	a5,14(s1)
   1368c:	01578c63          	beq	a5,s5,136a4 <_fwalk+0x98>
   13690:	00048513          	mv	a0,s1
   13694:	00b12623          	sw	a1,12(sp)
   13698:	000580e7          	jalr	a1
   1369c:	00c12583          	lw	a1,12(sp)
   136a0:	00a96933          	or	s2,s2,a0
   136a4:	06848493          	addi	s1,s1,104
   136a8:	fc9ff06f          	j	13670 <_fwalk+0x64>

000136ac <_fwalk_reent>:
   136ac:	fd010113          	addi	sp,sp,-48
   136b0:	02812423          	sw	s0,40(sp)
   136b4:	03212023          	sw	s2,32(sp)
   136b8:	01412c23          	sw	s4,24(sp)
   136bc:	01512a23          	sw	s5,20(sp)
   136c0:	01612823          	sw	s6,16(sp)
   136c4:	01712623          	sw	s7,12(sp)
   136c8:	02112623          	sw	ra,44(sp)
   136cc:	02912223          	sw	s1,36(sp)
   136d0:	01312e23          	sw	s3,28(sp)
   136d4:	00050a13          	mv	s4,a0
   136d8:	00058a93          	mv	s5,a1
   136dc:	2e050413          	addi	s0,a0,736
   136e0:	00000913          	li	s2,0
   136e4:	00100b13          	li	s6,1
   136e8:	fff00b93          	li	s7,-1
   136ec:	02041a63          	bnez	s0,13720 <_fwalk_reent+0x74>
   136f0:	02c12083          	lw	ra,44(sp)
   136f4:	02812403          	lw	s0,40(sp)
   136f8:	00090513          	mv	a0,s2
   136fc:	02412483          	lw	s1,36(sp)
   13700:	02012903          	lw	s2,32(sp)
   13704:	01c12983          	lw	s3,28(sp)
   13708:	01812a03          	lw	s4,24(sp)
   1370c:	01412a83          	lw	s5,20(sp)
   13710:	01012b03          	lw	s6,16(sp)
   13714:	00c12b83          	lw	s7,12(sp)
   13718:	03010113          	addi	sp,sp,48
   1371c:	00008067          	ret
   13720:	00842483          	lw	s1,8(s0)
   13724:	00442983          	lw	s3,4(s0)
   13728:	fff98993          	addi	s3,s3,-1
   1372c:	0009d663          	bgez	s3,13738 <_fwalk_reent+0x8c>
   13730:	00042403          	lw	s0,0(s0)
   13734:	fb9ff06f          	j	136ec <_fwalk_reent+0x40>
   13738:	00c4d783          	lhu	a5,12(s1)
   1373c:	00fb7e63          	bleu	a5,s6,13758 <_fwalk_reent+0xac>
   13740:	00e49783          	lh	a5,14(s1)
   13744:	01778a63          	beq	a5,s7,13758 <_fwalk_reent+0xac>
   13748:	00048593          	mv	a1,s1
   1374c:	000a0513          	mv	a0,s4
   13750:	000a80e7          	jalr	s5
   13754:	00a96933          	or	s2,s2,a0
   13758:	06848493          	addi	s1,s1,104
   1375c:	fcdff06f          	j	13728 <_fwalk_reent+0x7c>

00013760 <eclear>:
   13760:	01450793          	addi	a5,a0,20
   13764:	00250513          	addi	a0,a0,2
   13768:	fe051f23          	sh	zero,-2(a0)
   1376c:	fef51ce3          	bne	a0,a5,13764 <eclear+0x4>
   13770:	00008067          	ret

00013774 <emov>:
   13774:	01450793          	addi	a5,a0,20
   13778:	00250513          	addi	a0,a0,2
   1377c:	ffe55703          	lhu	a4,-2(a0)
   13780:	00258593          	addi	a1,a1,2
   13784:	fee59f23          	sh	a4,-2(a1)
   13788:	fea798e3          	bne	a5,a0,13778 <emov+0x4>
   1378c:	00008067          	ret

00013790 <ecleaz>:
   13790:	01a50793          	addi	a5,a0,26
   13794:	00250513          	addi	a0,a0,2
   13798:	fe051f23          	sh	zero,-2(a0)
   1379c:	fef51ce3          	bne	a0,a5,13794 <ecleaz+0x4>
   137a0:	00008067          	ret

000137a4 <emovz>:
   137a4:	01850713          	addi	a4,a0,24
   137a8:	00058793          	mv	a5,a1
   137ac:	00250513          	addi	a0,a0,2
   137b0:	ffe55683          	lhu	a3,-2(a0)
   137b4:	00278793          	addi	a5,a5,2
   137b8:	fed79f23          	sh	a3,-2(a5)
   137bc:	fea718e3          	bne	a4,a0,137ac <emovz+0x8>
   137c0:	00059c23          	sh	zero,24(a1)
   137c4:	00008067          	ret

000137c8 <ecmpm>:
   137c8:	00450793          	addi	a5,a0,4
   137cc:	00458593          	addi	a1,a1,4
   137d0:	01a50513          	addi	a0,a0,26
   137d4:	00278793          	addi	a5,a5,2
   137d8:	00258593          	addi	a1,a1,2
   137dc:	ffe7d683          	lhu	a3,-2(a5)
   137e0:	ffe5d703          	lhu	a4,-2(a1)
   137e4:	00e69863          	bne	a3,a4,137f4 <ecmpm+0x2c>
   137e8:	fef516e3          	bne	a0,a5,137d4 <ecmpm+0xc>
   137ec:	00000513          	li	a0,0
   137f0:	00008067          	ret
   137f4:	00100513          	li	a0,1
   137f8:	00d76463          	bltu	a4,a3,13800 <ecmpm+0x38>
   137fc:	fff00513          	li	a0,-1
   13800:	00008067          	ret

00013804 <eshdn1>:
   13804:	00450693          	addi	a3,a0,4
   13808:	00000793          	li	a5,0
   1380c:	01a50513          	addi	a0,a0,26
   13810:	ffff8637          	lui	a2,0xffff8
   13814:	0006d703          	lhu	a4,0(a3)
   13818:	00177593          	andi	a1,a4,1
   1381c:	00058463          	beqz	a1,13824 <eshdn1+0x20>
   13820:	0017e793          	ori	a5,a5,1
   13824:	0027f593          	andi	a1,a5,2
   13828:	00175713          	srli	a4,a4,0x1
   1382c:	02059063          	bnez	a1,1384c <eshdn1+0x48>
   13830:	00179793          	slli	a5,a5,0x1
   13834:	00e69023          	sh	a4,0(a3)
   13838:	01079793          	slli	a5,a5,0x10
   1383c:	00268693          	addi	a3,a3,2
   13840:	0107d793          	srli	a5,a5,0x10
   13844:	fcd518e3          	bne	a0,a3,13814 <eshdn1+0x10>
   13848:	00008067          	ret
   1384c:	00c76733          	or	a4,a4,a2
   13850:	fe1ff06f          	j	13830 <eshdn1+0x2c>

00013854 <eshup1>:
   13854:	01650693          	addi	a3,a0,22
   13858:	00000713          	li	a4,0
   1385c:	0026d783          	lhu	a5,2(a3)
   13860:	01079613          	slli	a2,a5,0x10
   13864:	41065613          	srai	a2,a2,0x10
   13868:	00065463          	bgez	a2,13870 <eshup1+0x1c>
   1386c:	00176713          	ori	a4,a4,1
   13870:	00179793          	slli	a5,a5,0x1
   13874:	01079793          	slli	a5,a5,0x10
   13878:	00277613          	andi	a2,a4,2
   1387c:	0107d793          	srli	a5,a5,0x10
   13880:	02061063          	bnez	a2,138a0 <eshup1+0x4c>
   13884:	00171713          	slli	a4,a4,0x1
   13888:	00f69123          	sh	a5,2(a3)
   1388c:	01071713          	slli	a4,a4,0x10
   13890:	ffe68693          	addi	a3,a3,-2
   13894:	01075713          	srli	a4,a4,0x10
   13898:	fcd512e3          	bne	a0,a3,1385c <eshup1+0x8>
   1389c:	00008067          	ret
   138a0:	0017e793          	ori	a5,a5,1
   138a4:	fe1ff06f          	j	13884 <eshup1+0x30>

000138a8 <eshdn8>:
   138a8:	00450793          	addi	a5,a0,4
   138ac:	00000713          	li	a4,0
   138b0:	01a50513          	addi	a0,a0,26
   138b4:	0007d683          	lhu	a3,0(a5)
   138b8:	00278793          	addi	a5,a5,2
   138bc:	0086d613          	srli	a2,a3,0x8
   138c0:	00c76733          	or	a4,a4,a2
   138c4:	fee79f23          	sh	a4,-2(a5)
   138c8:	00869713          	slli	a4,a3,0x8
   138cc:	01071713          	slli	a4,a4,0x10
   138d0:	01075713          	srli	a4,a4,0x10
   138d4:	fef510e3          	bne	a0,a5,138b4 <eshdn8+0xc>
   138d8:	00008067          	ret

000138dc <eshup8>:
   138dc:	01650793          	addi	a5,a0,22
   138e0:	00000713          	li	a4,0
   138e4:	0027d683          	lhu	a3,2(a5)
   138e8:	ffe78793          	addi	a5,a5,-2
   138ec:	00869613          	slli	a2,a3,0x8
   138f0:	00c76733          	or	a4,a4,a2
   138f4:	00e79223          	sh	a4,4(a5)
   138f8:	0086d713          	srli	a4,a3,0x8
   138fc:	fef514e3          	bne	a0,a5,138e4 <eshup8+0x8>
   13900:	00008067          	ret

00013904 <eshup6>:
   13904:	00450793          	addi	a5,a0,4
   13908:	01850713          	addi	a4,a0,24
   1390c:	00278793          	addi	a5,a5,2
   13910:	0007d683          	lhu	a3,0(a5)
   13914:	fed79f23          	sh	a3,-2(a5)
   13918:	fef71ae3          	bne	a4,a5,1390c <eshup6+0x8>
   1391c:	00051c23          	sh	zero,24(a0)
   13920:	00008067          	ret

00013924 <eshdn6>:
   13924:	01850793          	addi	a5,a0,24
   13928:	01a50713          	addi	a4,a0,26
   1392c:	00450693          	addi	a3,a0,4
   13930:	ffe78793          	addi	a5,a5,-2
   13934:	0007d603          	lhu	a2,0(a5)
   13938:	ffe70713          	addi	a4,a4,-2
   1393c:	00c71023          	sh	a2,0(a4)
   13940:	fef698e3          	bne	a3,a5,13930 <eshdn6+0xc>
   13944:	00051223          	sh	zero,4(a0)
   13948:	00008067          	ret

0001394c <eaddm>:
   1394c:	01858593          	addi	a1,a1,24
   13950:	01650713          	addi	a4,a0,22
   13954:	00000693          	li	a3,0
   13958:	00275783          	lhu	a5,2(a4)
   1395c:	0005d603          	lhu	a2,0(a1)
   13960:	ffe70713          	addi	a4,a4,-2
   13964:	ffe58593          	addi	a1,a1,-2
   13968:	00c787b3          	add	a5,a5,a2
   1396c:	00d787b3          	add	a5,a5,a3
   13970:	00f59123          	sh	a5,2(a1)
   13974:	0107d793          	srli	a5,a5,0x10
   13978:	0017f693          	andi	a3,a5,1
   1397c:	fce51ee3          	bne	a0,a4,13958 <eaddm+0xc>
   13980:	00008067          	ret

00013984 <esubm>:
   13984:	01858593          	addi	a1,a1,24
   13988:	01650713          	addi	a4,a0,22
   1398c:	00000693          	li	a3,0
   13990:	0005d783          	lhu	a5,0(a1)
   13994:	00275603          	lhu	a2,2(a4)
   13998:	ffe70713          	addi	a4,a4,-2
   1399c:	ffe58593          	addi	a1,a1,-2
   139a0:	40c787b3          	sub	a5,a5,a2
   139a4:	40d787b3          	sub	a5,a5,a3
   139a8:	00f59123          	sh	a5,2(a1)
   139ac:	0107d793          	srli	a5,a5,0x10
   139b0:	0017f693          	andi	a3,a5,1
   139b4:	fce51ee3          	bne	a0,a4,13990 <esubm+0xc>
   139b8:	00008067          	ret

000139bc <m16m>:
   139bc:	fe010113          	addi	sp,sp,-32
   139c0:	00010337          	lui	t1,0x10
   139c4:	01858893          	addi	a7,a1,24
   139c8:	00011d23          	sh	zero,26(sp)
   139cc:	00011e23          	sh	zero,28(sp)
   139d0:	00458593          	addi	a1,a1,4
   139d4:	01c10693          	addi	a3,sp,28
   139d8:	fff30313          	addi	t1,t1,-1 # ffff <_start-0x75>
   139dc:	0008d703          	lhu	a4,0(a7)
   139e0:	ffe68693          	addi	a3,a3,-2
   139e4:	ffe88893          	addi	a7,a7,-2
   139e8:	02071c63          	bnez	a4,13a20 <m16m+0x64>
   139ec:	fe069f23          	sh	zero,-2(a3)
   139f0:	ff1596e3          	bne	a1,a7,139dc <m16m+0x20>
   139f4:	00400793          	li	a5,4
   139f8:	01a00713          	li	a4,26
   139fc:	00410593          	addi	a1,sp,4
   13a00:	00f585b3          	add	a1,a1,a5
   13a04:	0005d583          	lhu	a1,0(a1)
   13a08:	00f606b3          	add	a3,a2,a5
   13a0c:	00278793          	addi	a5,a5,2
   13a10:	00b69023          	sh	a1,0(a3)
   13a14:	fee794e3          	bne	a5,a4,139fc <m16m+0x40>
   13a18:	02010113          	addi	sp,sp,32
   13a1c:	00008067          	ret
   13a20:	02a70733          	mul	a4,a4,a0
   13a24:	0026d803          	lhu	a6,2(a3)
   13a28:	006777b3          	and	a5,a4,t1
   13a2c:	010787b3          	add	a5,a5,a6
   13a30:	0107d813          	srli	a6,a5,0x10
   13a34:	00f69123          	sh	a5,2(a3)
   13a38:	01075793          	srli	a5,a4,0x10
   13a3c:	0006d703          	lhu	a4,0(a3)
   13a40:	00e787b3          	add	a5,a5,a4
   13a44:	010787b3          	add	a5,a5,a6
   13a48:	00f69023          	sh	a5,0(a3)
   13a4c:	0107d793          	srli	a5,a5,0x10
   13a50:	fef69f23          	sh	a5,-2(a3)
   13a54:	f9dff06f          	j	139f0 <m16m+0x34>

00013a58 <eisnan>:
   13a58:	01255783          	lhu	a5,18(a0)
   13a5c:	fff7c793          	not	a5,a5
   13a60:	01179713          	slli	a4,a5,0x11
   13a64:	00071c63          	bnez	a4,13a7c <eisnan+0x24>
   13a68:	01250793          	addi	a5,a0,18
   13a6c:	00250513          	addi	a0,a0,2
   13a70:	ffe55703          	lhu	a4,-2(a0)
   13a74:	00071863          	bnez	a4,13a84 <eisnan+0x2c>
   13a78:	fea79ae3          	bne	a5,a0,13a6c <eisnan+0x14>
   13a7c:	00000513          	li	a0,0
   13a80:	00008067          	ret
   13a84:	00100513          	li	a0,1
   13a88:	00008067          	ret

00013a8c <eisneg>:
   13a8c:	ff010113          	addi	sp,sp,-16
   13a90:	00812423          	sw	s0,8(sp)
   13a94:	00112623          	sw	ra,12(sp)
   13a98:	00050413          	mv	s0,a0
   13a9c:	fbdff0ef          	jal	ra,13a58 <eisnan>
   13aa0:	00051e63          	bnez	a0,13abc <eisneg+0x30>
   13aa4:	01241503          	lh	a0,18(s0)
   13aa8:	01f55513          	srli	a0,a0,0x1f
   13aac:	00c12083          	lw	ra,12(sp)
   13ab0:	00812403          	lw	s0,8(sp)
   13ab4:	01010113          	addi	sp,sp,16
   13ab8:	00008067          	ret
   13abc:	00000513          	li	a0,0
   13ac0:	fedff06f          	j	13aac <eisneg+0x20>

00013ac4 <emovi>:
   13ac4:	01251783          	lh	a5,18(a0)
   13ac8:	ff010113          	addi	sp,sp,-16
   13acc:	00112623          	sw	ra,12(sp)
   13ad0:	00812423          	sw	s0,8(sp)
   13ad4:	00912223          	sw	s1,4(sp)
   13ad8:	01212023          	sw	s2,0(sp)
   13adc:	0607d863          	bgez	a5,13b4c <emovi+0x88>
   13ae0:	fff00793          	li	a5,-1
   13ae4:	00f59023          	sh	a5,0(a1)
   13ae8:	01255703          	lhu	a4,18(a0)
   13aec:	000087b7          	lui	a5,0x8
   13af0:	fff78793          	addi	a5,a5,-1 # 7fff <_start-0x8075>
   13af4:	00e7f733          	and	a4,a5,a4
   13af8:	00e59123          	sh	a4,2(a1)
   13afc:	01050913          	addi	s2,a0,16
   13b00:	06f71663          	bne	a4,a5,13b6c <emovi+0xa8>
   13b04:	00058413          	mv	s0,a1
   13b08:	00050493          	mv	s1,a0
   13b0c:	f4dff0ef          	jal	ra,13a58 <eisnan>
   13b10:	04050263          	beqz	a0,13b54 <emovi+0x90>
   13b14:	00640793          	addi	a5,s0,6
   13b18:	00041223          	sh	zero,4(s0)
   13b1c:	ffc48513          	addi	a0,s1,-4
   13b20:	ffe90913          	addi	s2,s2,-2
   13b24:	00295703          	lhu	a4,2(s2)
   13b28:	00278793          	addi	a5,a5,2
   13b2c:	fee79f23          	sh	a4,-2(a5)
   13b30:	fea918e3          	bne	s2,a0,13b20 <emovi+0x5c>
   13b34:	00c12083          	lw	ra,12(sp)
   13b38:	00812403          	lw	s0,8(sp)
   13b3c:	00412483          	lw	s1,4(sp)
   13b40:	00012903          	lw	s2,0(sp)
   13b44:	01010113          	addi	sp,sp,16
   13b48:	00008067          	ret
   13b4c:	00059023          	sh	zero,0(a1)
   13b50:	f99ff06f          	j	13ae8 <emovi+0x24>
   13b54:	00440793          	addi	a5,s0,4
   13b58:	01a40593          	addi	a1,s0,26
   13b5c:	00278793          	addi	a5,a5,2
   13b60:	fe079f23          	sh	zero,-2(a5)
   13b64:	feb79ce3          	bne	a5,a1,13b5c <emovi+0x98>
   13b68:	fcdff06f          	j	13b34 <emovi+0x70>
   13b6c:	00658793          	addi	a5,a1,6
   13b70:	00059223          	sh	zero,4(a1)
   13b74:	ffe50513          	addi	a0,a0,-2
   13b78:	ffe90913          	addi	s2,s2,-2
   13b7c:	00295703          	lhu	a4,2(s2)
   13b80:	00278793          	addi	a5,a5,2
   13b84:	fee79f23          	sh	a4,-2(a5)
   13b88:	fea918e3          	bne	s2,a0,13b78 <emovi+0xb4>
   13b8c:	00059c23          	sh	zero,24(a1)
   13b90:	fa5ff06f          	j	13b34 <emovi+0x70>

00013b94 <ecmp>:
   13b94:	fb010113          	addi	sp,sp,-80
   13b98:	04912223          	sw	s1,68(sp)
   13b9c:	05212023          	sw	s2,64(sp)
   13ba0:	04112623          	sw	ra,76(sp)
   13ba4:	04812423          	sw	s0,72(sp)
   13ba8:	00050913          	mv	s2,a0
   13bac:	00058493          	mv	s1,a1
   13bb0:	ea9ff0ef          	jal	ra,13a58 <eisnan>
   13bb4:	0e051063          	bnez	a0,13c94 <ecmp+0x100>
   13bb8:	00048513          	mv	a0,s1
   13bbc:	e9dff0ef          	jal	ra,13a58 <eisnan>
   13bc0:	00050413          	mv	s0,a0
   13bc4:	0c051863          	bnez	a0,13c94 <ecmp+0x100>
   13bc8:	00810593          	addi	a1,sp,8
   13bcc:	00090513          	mv	a0,s2
   13bd0:	ef5ff0ef          	jal	ra,13ac4 <emovi>
   13bd4:	02410593          	addi	a1,sp,36
   13bd8:	00048513          	mv	a0,s1
   13bdc:	ee9ff0ef          	jal	ra,13ac4 <emovi>
   13be0:	00815703          	lhu	a4,8(sp)
   13be4:	02415783          	lhu	a5,36(sp)
   13be8:	06e78063          	beq	a5,a4,13c48 <ecmp+0xb4>
   13bec:	00200793          	li	a5,2
   13bf0:	01800693          	li	a3,24
   13bf4:	00810613          	addi	a2,sp,8
   13bf8:	00f60633          	add	a2,a2,a5
   13bfc:	00065603          	lhu	a2,0(a2) # ffff8000 <__global_pointer$+0xfffd4e58>
   13c00:	02061c63          	bnez	a2,13c38 <ecmp+0xa4>
   13c04:	02410613          	addi	a2,sp,36
   13c08:	00f60633          	add	a2,a2,a5
   13c0c:	00065603          	lhu	a2,0(a2)
   13c10:	02061463          	bnez	a2,13c38 <ecmp+0xa4>
   13c14:	00278793          	addi	a5,a5,2
   13c18:	fcd79ee3          	bne	a5,a3,13bf4 <ecmp+0x60>
   13c1c:	00040513          	mv	a0,s0
   13c20:	04c12083          	lw	ra,76(sp)
   13c24:	04812403          	lw	s0,72(sp)
   13c28:	04412483          	lw	s1,68(sp)
   13c2c:	04012903          	lw	s2,64(sp)
   13c30:	05010113          	addi	sp,sp,80
   13c34:	00008067          	ret
   13c38:	00100413          	li	s0,1
   13c3c:	fe0700e3          	beqz	a4,13c1c <ecmp+0x88>
   13c40:	fff00413          	li	s0,-1
   13c44:	fd9ff06f          	j	13c1c <ecmp+0x88>
   13c48:	00100613          	li	a2,1
   13c4c:	00078463          	beqz	a5,13c54 <ecmp+0xc0>
   13c50:	fff00613          	li	a2,-1
   13c54:	00000793          	li	a5,0
   13c58:	01800593          	li	a1,24
   13c5c:	00810713          	addi	a4,sp,8
   13c60:	00f70733          	add	a4,a4,a5
   13c64:	00075683          	lhu	a3,0(a4)
   13c68:	02410713          	addi	a4,sp,36
   13c6c:	00f70733          	add	a4,a4,a5
   13c70:	00075703          	lhu	a4,0(a4)
   13c74:	00e69863          	bne	a3,a4,13c84 <ecmp+0xf0>
   13c78:	00278793          	addi	a5,a5,2
   13c7c:	feb790e3          	bne	a5,a1,13c5c <ecmp+0xc8>
   13c80:	f9dff06f          	j	13c1c <ecmp+0x88>
   13c84:	00060413          	mv	s0,a2
   13c88:	f8d76ae3          	bltu	a4,a3,13c1c <ecmp+0x88>
   13c8c:	40c00433          	neg	s0,a2
   13c90:	f8dff06f          	j	13c1c <ecmp+0x88>
   13c94:	ffe00413          	li	s0,-2
   13c98:	f85ff06f          	j	13c1c <ecmp+0x88>

00013c9c <eisinf>:
   13c9c:	01255783          	lhu	a5,18(a0)
   13ca0:	fff7c793          	not	a5,a5
   13ca4:	01179713          	slli	a4,a5,0x11
   13ca8:	02071063          	bnez	a4,13cc8 <eisinf+0x2c>
   13cac:	ff010113          	addi	sp,sp,-16
   13cb0:	00112623          	sw	ra,12(sp)
   13cb4:	da5ff0ef          	jal	ra,13a58 <eisnan>
   13cb8:	00c12083          	lw	ra,12(sp)
   13cbc:	00153513          	seqz	a0,a0
   13cc0:	01010113          	addi	sp,sp,16
   13cc4:	00008067          	ret
   13cc8:	00000513          	li	a0,0
   13ccc:	00008067          	ret

00013cd0 <einfin.isra.2>:
   13cd0:	01250793          	addi	a5,a0,18
   13cd4:	00250513          	addi	a0,a0,2
   13cd8:	fe051f23          	sh	zero,-2(a0)
   13cdc:	fef51ce3          	bne	a0,a5,13cd4 <einfin.isra.2+0x4>
   13ce0:	00055783          	lhu	a5,0(a0)
   13ce4:	00008737          	lui	a4,0x8
   13ce8:	fff70713          	addi	a4,a4,-1 # 7fff <_start-0x8075>
   13cec:	00e7e7b3          	or	a5,a5,a4
   13cf0:	00f51023          	sh	a5,0(a0)
   13cf4:	00008067          	ret

00013cf8 <eshift.part.3>:
   13cf8:	fe010113          	addi	sp,sp,-32
   13cfc:	00812c23          	sw	s0,24(sp)
   13d00:	01312623          	sw	s3,12(sp)
   13d04:	00112e23          	sw	ra,28(sp)
   13d08:	00912a23          	sw	s1,20(sp)
   13d0c:	01212823          	sw	s2,16(sp)
   13d10:	01412423          	sw	s4,8(sp)
   13d14:	01512223          	sw	s5,4(sp)
   13d18:	00050993          	mv	s3,a0
   13d1c:	00058413          	mv	s0,a1
   13d20:	1005d263          	bgez	a1,13e24 <eshift.part.3+0x12c>
   13d24:	40b00933          	neg	s2,a1
   13d28:	00090a13          	mv	s4,s2
   13d2c:	00000493          	li	s1,0
   13d30:	00f00a93          	li	s5,15
   13d34:	034ace63          	blt	s5,s4,13d70 <eshift.part.3+0x78>
   13d38:	00495913          	srli	s2,s2,0x4
   13d3c:	ff000593          	li	a1,-16
   13d40:	02b905b3          	mul	a1,s2,a1
   13d44:	00700a13          	li	s4,7
   13d48:	40858433          	sub	s0,a1,s0
   13d4c:	00040913          	mv	s2,s0
   13d50:	032a4c63          	blt	s4,s2,13d88 <eshift.part.3+0x90>
   13d54:	00345593          	srli	a1,s0,0x3
   13d58:	ff800793          	li	a5,-8
   13d5c:	02f585b3          	mul	a1,a1,a5
   13d60:	00858433          	add	s0,a1,s0
   13d64:	02041e63          	bnez	s0,13da0 <eshift.part.3+0xa8>
   13d68:	00903533          	snez	a0,s1
   13d6c:	0940006f          	j	13e00 <eshift.part.3+0x108>
   13d70:	0189d783          	lhu	a5,24(s3)
   13d74:	00098513          	mv	a0,s3
   13d78:	ff0a0a13          	addi	s4,s4,-16
   13d7c:	00f4e4b3          	or	s1,s1,a5
   13d80:	ba5ff0ef          	jal	ra,13924 <eshdn6>
   13d84:	fb1ff06f          	j	13d34 <eshift.part.3+0x3c>
   13d88:	0189c783          	lbu	a5,24(s3)
   13d8c:	00098513          	mv	a0,s3
   13d90:	ff890913          	addi	s2,s2,-8
   13d94:	0097e4b3          	or	s1,a5,s1
   13d98:	b11ff0ef          	jal	ra,138a8 <eshdn8>
   13d9c:	fb5ff06f          	j	13d50 <eshift.part.3+0x58>
   13da0:	0189d783          	lhu	a5,24(s3)
   13da4:	00098513          	mv	a0,s3
   13da8:	fff40413          	addi	s0,s0,-1
   13dac:	0017f793          	andi	a5,a5,1
   13db0:	0097e4b3          	or	s1,a5,s1
   13db4:	a51ff0ef          	jal	ra,13804 <eshdn1>
   13db8:	fadff06f          	j	13d64 <eshift.part.3+0x6c>
   13dbc:	00098513          	mv	a0,s3
   13dc0:	b45ff0ef          	jal	ra,13904 <eshup6>
   13dc4:	ff048493          	addi	s1,s1,-16
   13dc8:	fe994ae3          	blt	s2,s1,13dbc <eshift.part.3+0xc4>
   13dcc:	00445593          	srli	a1,s0,0x4
   13dd0:	ff000793          	li	a5,-16
   13dd4:	02f585b3          	mul	a1,a1,a5
   13dd8:	00700913          	li	s2,7
   13ddc:	00b40433          	add	s0,s0,a1
   13de0:	00040493          	mv	s1,s0
   13de4:	04994663          	blt	s2,s1,13e30 <eshift.part.3+0x138>
   13de8:	00345593          	srli	a1,s0,0x3
   13dec:	ff800793          	li	a5,-8
   13df0:	02f585b3          	mul	a1,a1,a5
   13df4:	00b40433          	add	s0,s0,a1
   13df8:	04041463          	bnez	s0,13e40 <eshift.part.3+0x148>
   13dfc:	00000513          	li	a0,0
   13e00:	01c12083          	lw	ra,28(sp)
   13e04:	01812403          	lw	s0,24(sp)
   13e08:	01412483          	lw	s1,20(sp)
   13e0c:	01012903          	lw	s2,16(sp)
   13e10:	00c12983          	lw	s3,12(sp)
   13e14:	00812a03          	lw	s4,8(sp)
   13e18:	00412a83          	lw	s5,4(sp)
   13e1c:	02010113          	addi	sp,sp,32
   13e20:	00008067          	ret
   13e24:	00058493          	mv	s1,a1
   13e28:	00f00913          	li	s2,15
   13e2c:	f9dff06f          	j	13dc8 <eshift.part.3+0xd0>
   13e30:	00098513          	mv	a0,s3
   13e34:	aa9ff0ef          	jal	ra,138dc <eshup8>
   13e38:	ff848493          	addi	s1,s1,-8
   13e3c:	fa9ff06f          	j	13de4 <eshift.part.3+0xec>
   13e40:	00098513          	mv	a0,s3
   13e44:	a11ff0ef          	jal	ra,13854 <eshup1>
   13e48:	fff40413          	addi	s0,s0,-1
   13e4c:	fadff06f          	j	13df8 <eshift.part.3+0x100>

00013e50 <enormlz>:
   13e50:	00455783          	lhu	a5,4(a0)
   13e54:	ff010113          	addi	sp,sp,-16
   13e58:	00912223          	sw	s1,4(sp)
   13e5c:	00112623          	sw	ra,12(sp)
   13e60:	00812423          	sw	s0,8(sp)
   13e64:	01212023          	sw	s2,0(sp)
   13e68:	00050493          	mv	s1,a0
   13e6c:	08079263          	bnez	a5,13ef0 <enormlz+0xa0>
   13e70:	00651783          	lh	a5,6(a0)
   13e74:	00000413          	li	s0,0
   13e78:	0a000913          	li	s2,160
   13e7c:	0207d863          	bgez	a5,13eac <enormlz+0x5c>
   13e80:	00040513          	mv	a0,s0
   13e84:	00c12083          	lw	ra,12(sp)
   13e88:	00812403          	lw	s0,8(sp)
   13e8c:	00412483          	lw	s1,4(sp)
   13e90:	00012903          	lw	s2,0(sp)
   13e94:	01010113          	addi	sp,sp,16
   13e98:	00008067          	ret
   13e9c:	00048513          	mv	a0,s1
   13ea0:	01040413          	addi	s0,s0,16
   13ea4:	a61ff0ef          	jal	ra,13904 <eshup6>
   13ea8:	fd240ce3          	beq	s0,s2,13e80 <enormlz+0x30>
   13eac:	0064d783          	lhu	a5,6(s1)
   13eb0:	fe0786e3          	beqz	a5,13e9c <enormlz+0x4c>
   13eb4:	0064d783          	lhu	a5,6(s1)
   13eb8:	f007f793          	andi	a5,a5,-256
   13ebc:	02078263          	beqz	a5,13ee0 <enormlz+0x90>
   13ec0:	0a000913          	li	s2,160
   13ec4:	00649783          	lh	a5,6(s1)
   13ec8:	fa07cce3          	bltz	a5,13e80 <enormlz+0x30>
   13ecc:	00048513          	mv	a0,s1
   13ed0:	00140413          	addi	s0,s0,1
   13ed4:	981ff0ef          	jal	ra,13854 <eshup1>
   13ed8:	fe8956e3          	ble	s0,s2,13ec4 <enormlz+0x74>
   13edc:	fa5ff06f          	j	13e80 <enormlz+0x30>
   13ee0:	00048513          	mv	a0,s1
   13ee4:	9f9ff0ef          	jal	ra,138dc <eshup8>
   13ee8:	00840413          	addi	s0,s0,8
   13eec:	fc9ff06f          	j	13eb4 <enormlz+0x64>
   13ef0:	f007f793          	andi	a5,a5,-256
   13ef4:	00000413          	li	s0,0
   13ef8:	00078663          	beqz	a5,13f04 <enormlz+0xb4>
   13efc:	9adff0ef          	jal	ra,138a8 <eshdn8>
   13f00:	ff800413          	li	s0,-8
   13f04:	f7000913          	li	s2,-144
   13f08:	0140006f          	j	13f1c <enormlz+0xcc>
   13f0c:	00048513          	mv	a0,s1
   13f10:	fff40413          	addi	s0,s0,-1
   13f14:	8f1ff0ef          	jal	ra,13804 <eshdn1>
   13f18:	f72444e3          	blt	s0,s2,13e80 <enormlz+0x30>
   13f1c:	0044d783          	lhu	a5,4(s1)
   13f20:	fe0796e3          	bnez	a5,13f0c <enormlz+0xbc>
   13f24:	f5dff06f          	j	13e80 <enormlz+0x30>

00013f28 <enan.constprop.12>:
   13f28:	01050793          	addi	a5,a0,16
   13f2c:	00250513          	addi	a0,a0,2
   13f30:	fe051f23          	sh	zero,-2(a0)
   13f34:	fef51ce3          	bne	a0,a5,13f2c <enan.constprop.12+0x4>
   13f38:	ffffc7b7          	lui	a5,0xffffc
   13f3c:	00f51023          	sh	a5,0(a0)
   13f40:	ffff87b7          	lui	a5,0xffff8
   13f44:	fff7c793          	not	a5,a5
   13f48:	00f51123          	sh	a5,2(a0)
   13f4c:	00008067          	ret

00013f50 <emovo.isra.6>:
   13f50:	00050713          	mv	a4,a0
   13f54:	00075683          	lhu	a3,0(a4)
   13f58:	00058513          	mv	a0,a1
   13f5c:	00275783          	lhu	a5,2(a4)
   13f60:	00068663          	beqz	a3,13f6c <emovo.isra.6+0x1c>
   13f64:	ffff86b7          	lui	a3,0xffff8
   13f68:	00d7e7b3          	or	a5,a5,a3
   13f6c:	00f51923          	sh	a5,18(a0)
   13f70:	00275603          	lhu	a2,2(a4)
   13f74:	000086b7          	lui	a3,0x8
   13f78:	fff68693          	addi	a3,a3,-1 # 7fff <_start-0x8075>
   13f7c:	00670793          	addi	a5,a4,6
   13f80:	00d61e63          	bne	a2,a3,13f9c <emovo.isra.6+0x4c>
   13f84:	01a70713          	addi	a4,a4,26
   13f88:	0007d683          	lhu	a3,0(a5) # ffff8000 <__global_pointer$+0xfffd4e58>
   13f8c:	02069863          	bnez	a3,13fbc <emovo.isra.6+0x6c>
   13f90:	00278793          	addi	a5,a5,2
   13f94:	fee79ae3          	bne	a5,a4,13f88 <emovo.isra.6+0x38>
   13f98:	d39ff06f          	j	13cd0 <einfin.isra.2>
   13f9c:	01050513          	addi	a0,a0,16
   13fa0:	01870713          	addi	a4,a4,24
   13fa4:	00278793          	addi	a5,a5,2
   13fa8:	ffe7d683          	lhu	a3,-2(a5)
   13fac:	ffe50513          	addi	a0,a0,-2
   13fb0:	00d51123          	sh	a3,2(a0)
   13fb4:	fee798e3          	bne	a5,a4,13fa4 <emovo.isra.6+0x54>
   13fb8:	00008067          	ret
   13fbc:	f6dff06f          	j	13f28 <enan.constprop.12>

00013fc0 <e113toe.isra.8>:
   13fc0:	fd010113          	addi	sp,sp,-48
   13fc4:	02912223          	sw	s1,36(sp)
   13fc8:	00050493          	mv	s1,a0
   13fcc:	00410513          	addi	a0,sp,4
   13fd0:	02812423          	sw	s0,40(sp)
   13fd4:	02112623          	sw	ra,44(sp)
   13fd8:	00058413          	mv	s0,a1
   13fdc:	fb4ff0ef          	jal	ra,13790 <ecleaz>
   13fe0:	00e4d703          	lhu	a4,14(s1)
   13fe4:	01071793          	slli	a5,a4,0x10
   13fe8:	4107d793          	srai	a5,a5,0x10
   13fec:	0407c263          	bltz	a5,14030 <e113toe.isra.8+0x70>
   13ff0:	00011223          	sh	zero,4(sp)
   13ff4:	000086b7          	lui	a3,0x8
   13ff8:	fff68693          	addi	a3,a3,-1 # 7fff <_start-0x8075>
   13ffc:	00d77733          	and	a4,a4,a3
   14000:	00e48793          	addi	a5,s1,14
   14004:	06d71c63          	bne	a4,a3,1407c <e113toe.isra.8+0xbc>
   14008:	00048713          	mv	a4,s1
   1400c:	00075683          	lhu	a3,0(a4)
   14010:	02068663          	beqz	a3,1403c <e113toe.isra.8+0x7c>
   14014:	00040513          	mv	a0,s0
   14018:	f11ff0ef          	jal	ra,13f28 <enan.constprop.12>
   1401c:	02c12083          	lw	ra,44(sp)
   14020:	02812403          	lw	s0,40(sp)
   14024:	02412483          	lw	s1,36(sp)
   14028:	03010113          	addi	sp,sp,48
   1402c:	00008067          	ret
   14030:	fff00793          	li	a5,-1
   14034:	00f11223          	sh	a5,4(sp)
   14038:	fbdff06f          	j	13ff4 <e113toe.isra.8+0x34>
   1403c:	00270713          	addi	a4,a4,2
   14040:	fce796e3          	bne	a5,a4,1400c <e113toe.isra.8+0x4c>
   14044:	00040513          	mv	a0,s0
   14048:	f18ff0ef          	jal	ra,13760 <eclear>
   1404c:	00040513          	mv	a0,s0
   14050:	c81ff0ef          	jal	ra,13cd0 <einfin.isra.2>
   14054:	00e49783          	lh	a5,14(s1)
   14058:	fc07d2e3          	bgez	a5,1401c <e113toe.isra.8+0x5c>
   1405c:	00040513          	mv	a0,s0
   14060:	9f9ff0ef          	jal	ra,13a58 <eisnan>
   14064:	fa051ce3          	bnez	a0,1401c <e113toe.isra.8+0x5c>
   14068:	01245783          	lhu	a5,18(s0)
   1406c:	ffff8737          	lui	a4,0xffff8
   14070:	00e7c7b3          	xor	a5,a5,a4
   14074:	00f41923          	sh	a5,18(s0)
   14078:	fa5ff06f          	j	1401c <e113toe.isra.8+0x5c>
   1407c:	00e11323          	sh	a4,6(sp)
   14080:	00410693          	addi	a3,sp,4
   14084:	ffe78793          	addi	a5,a5,-2
   14088:	0007d603          	lhu	a2,0(a5)
   1408c:	00268693          	addi	a3,a3,2
   14090:	00c69223          	sh	a2,4(a3)
   14094:	fef498e3          	bne	s1,a5,14084 <e113toe.isra.8+0xc4>
   14098:	00071c63          	bnez	a4,140b0 <e113toe.isra.8+0xf0>
   1409c:	00011423          	sh	zero,8(sp)
   140a0:	00040593          	mv	a1,s0
   140a4:	00410513          	addi	a0,sp,4
   140a8:	ea9ff0ef          	jal	ra,13f50 <emovo.isra.6>
   140ac:	f71ff06f          	j	1401c <e113toe.isra.8+0x5c>
   140b0:	00100793          	li	a5,1
   140b4:	fff00593          	li	a1,-1
   140b8:	00410513          	addi	a0,sp,4
   140bc:	00f11423          	sh	a5,8(sp)
   140c0:	c39ff0ef          	jal	ra,13cf8 <eshift.part.3>
   140c4:	fddff06f          	j	140a0 <e113toe.isra.8+0xe0>

000140c8 <emdnorm>:
   140c8:	fe010113          	addi	sp,sp,-32
   140cc:	00812c23          	sw	s0,24(sp)
   140d0:	00912a23          	sw	s1,20(sp)
   140d4:	01212823          	sw	s2,16(sp)
   140d8:	01312623          	sw	s3,12(sp)
   140dc:	01412423          	sw	s4,8(sp)
   140e0:	01512223          	sw	s5,4(sp)
   140e4:	00068913          	mv	s2,a3
   140e8:	00078413          	mv	s0,a5
   140ec:	00112e23          	sw	ra,28(sp)
   140f0:	00050493          	mv	s1,a0
   140f4:	00058993          	mv	s3,a1
   140f8:	00060a13          	mv	s4,a2
   140fc:	00070a93          	mv	s5,a4
   14100:	d51ff0ef          	jal	ra,13e50 <enormlz>
   14104:	09000793          	li	a5,144
   14108:	40a90933          	sub	s2,s2,a0
   1410c:	04a7d463          	ble	a0,a5,14154 <emdnorm+0x8c>
   14110:	000087b7          	lui	a5,0x8
   14114:	ffe78793          	addi	a5,a5,-2 # 7ffe <_start-0x8076>
   14118:	2d27c663          	blt	a5,s2,143e4 <emdnorm+0x31c>
   1411c:	00248793          	addi	a5,s1,2
   14120:	01a48493          	addi	s1,s1,26
   14124:	00278793          	addi	a5,a5,2
   14128:	fe079f23          	sh	zero,-2(a5)
   1412c:	fe979ce3          	bne	a5,s1,14124 <emdnorm+0x5c>
   14130:	01c12083          	lw	ra,28(sp)
   14134:	01812403          	lw	s0,24(sp)
   14138:	01412483          	lw	s1,20(sp)
   1413c:	01012903          	lw	s2,16(sp)
   14140:	00c12983          	lw	s3,12(sp)
   14144:	00812a03          	lw	s4,8(sp)
   14148:	00412a83          	lw	s5,4(sp)
   1414c:	02010113          	addi	sp,sp,32
   14150:	00008067          	ret
   14154:	00095e63          	bgez	s2,14170 <emdnorm+0xa8>
   14158:	f7000793          	li	a5,-144
   1415c:	12f94c63          	blt	s2,a5,14294 <emdnorm+0x1cc>
   14160:	00090593          	mv	a1,s2
   14164:	00048513          	mv	a0,s1
   14168:	b91ff0ef          	jal	ra,13cf8 <eshift.part.3>
   1416c:	14051063          	bnez	a0,142ac <emdnorm+0x1e4>
   14170:	220a8663          	beqz	s5,1439c <emdnorm+0x2d4>
   14174:	00442703          	lw	a4,4(s0)
   14178:	00042783          	lw	a5,0(s0)
   1417c:	06f70663          	beq	a4,a5,141e8 <emdnorm+0x120>
   14180:	01a40513          	addi	a0,s0,26
   14184:	e0cff0ef          	jal	ra,13790 <ecleaz>
   14188:	00442783          	lw	a5,4(s0)
   1418c:	03800713          	li	a4,56
   14190:	16e78e63          	beq	a5,a4,1430c <emdnorm+0x244>
   14194:	12f74063          	blt	a4,a5,142b4 <emdnorm+0x1ec>
   14198:	01800713          	li	a4,24
   1419c:	1ae78663          	beq	a5,a4,14348 <emdnorm+0x280>
   141a0:	03500713          	li	a4,53
   141a4:	18e78263          	beq	a5,a4,14328 <emdnorm+0x260>
   141a8:	00c00713          	li	a4,12
   141ac:	00e42423          	sw	a4,8(s0)
   141b0:	80010737          	lui	a4,0x80010
   141b4:	fff70713          	addi	a4,a4,-1 # 8000ffff <__global_pointer$+0x7ffece57>
   141b8:	00e42a23          	sw	a4,20(s0)
   141bc:	00100713          	li	a4,1
   141c0:	00e41c23          	sh	a4,24(s0)
   141c4:	00b00713          	li	a4,11
   141c8:	00e42623          	sw	a4,12(s0)
   141cc:	00c42703          	lw	a4,12(s0)
   141d0:	01845683          	lhu	a3,24(s0)
   141d4:	00870713          	addi	a4,a4,8
   141d8:	00171713          	slli	a4,a4,0x1
   141dc:	00e40733          	add	a4,s0,a4
   141e0:	00d71523          	sh	a3,10(a4)
   141e4:	00f42023          	sw	a5,0(s0)
   141e8:	03204263          	bgtz	s2,1420c <emdnorm+0x144>
   141ec:	00442703          	lw	a4,4(s0)
   141f0:	09000793          	li	a5,144
   141f4:	00f70c63          	beq	a4,a5,1420c <emdnorm+0x144>
   141f8:	0184d783          	lhu	a5,24(s1)
   141fc:	00048513          	mv	a0,s1
   14200:	0017f793          	andi	a5,a5,1
   14204:	00f9e9b3          	or	s3,s3,a5
   14208:	dfcff0ef          	jal	ra,13804 <eshdn1>
   1420c:	00842683          	lw	a3,8(s0)
   14210:	01445603          	lhu	a2,20(s0)
   14214:	00442583          	lw	a1,4(s0)
   14218:	00169713          	slli	a4,a3,0x1
   1421c:	00e48733          	add	a4,s1,a4
   14220:	00075783          	lhu	a5,0(a4)
   14224:	00c7f7b3          	and	a5,a5,a2
   14228:	08f00613          	li	a2,143
   1422c:	00b64a63          	blt	a2,a1,14240 <emdnorm+0x178>
   14230:	00168693          	addi	a3,a3,1
   14234:	00070613          	mv	a2,a4
   14238:	00c00593          	li	a1,12
   1423c:	10d5da63          	ble	a3,a1,14350 <emdnorm+0x288>
   14240:	01445683          	lhu	a3,20(s0)
   14244:	00075603          	lhu	a2,0(a4)
   14248:	fff6c693          	not	a3,a3
   1424c:	00c6f6b3          	and	a3,a3,a2
   14250:	00d71023          	sh	a3,0(a4)
   14254:	01645703          	lhu	a4,22(s0)
   14258:	00f776b3          	and	a3,a4,a5
   1425c:	10068a63          	beqz	a3,14370 <emdnorm+0x2a8>
   14260:	02f71263          	bne	a4,a5,14284 <emdnorm+0x1bc>
   14264:	10099463          	bnez	s3,1436c <emdnorm+0x2a4>
   14268:	00c42783          	lw	a5,12(s0)
   1426c:	01845703          	lhu	a4,24(s0)
   14270:	00179793          	slli	a5,a5,0x1
   14274:	00f487b3          	add	a5,s1,a5
   14278:	0007d783          	lhu	a5,0(a5)
   1427c:	00e7f7b3          	and	a5,a5,a4
   14280:	0e078863          	beqz	a5,14370 <emdnorm+0x2a8>
   14284:	00048593          	mv	a1,s1
   14288:	01a40513          	addi	a0,s0,26
   1428c:	ec0ff0ef          	jal	ra,1394c <eaddm>
   14290:	0e00006f          	j	14370 <emdnorm+0x2a8>
   14294:	00248793          	addi	a5,s1,2
   14298:	01a48493          	addi	s1,s1,26
   1429c:	00278793          	addi	a5,a5,2
   142a0:	fe079f23          	sh	zero,-2(a5)
   142a4:	fe979ce3          	bne	a5,s1,1429c <emdnorm+0x1d4>
   142a8:	e89ff06f          	j	14130 <emdnorm+0x68>
   142ac:	00100993          	li	s3,1
   142b0:	ec1ff06f          	j	14170 <emdnorm+0xa8>
   142b4:	04000713          	li	a4,64
   142b8:	02e78863          	beq	a5,a4,142e8 <emdnorm+0x220>
   142bc:	07100713          	li	a4,113
   142c0:	eee794e3          	bne	a5,a4,141a8 <emdnorm+0xe0>
   142c4:	40008737          	lui	a4,0x40008
   142c8:	fff70713          	addi	a4,a4,-1 # 40007fff <__global_pointer$+0x3ffe4e57>
   142cc:	00a00693          	li	a3,10
   142d0:	00e42a23          	sw	a4,20(s0)
   142d4:	00d42423          	sw	a3,8(s0)
   142d8:	ffff8737          	lui	a4,0xffff8
   142dc:	00e41c23          	sh	a4,24(s0)
   142e0:	00d42623          	sw	a3,12(s0)
   142e4:	ee9ff06f          	j	141cc <emdnorm+0x104>
   142e8:	00700713          	li	a4,7
   142ec:	00e42423          	sw	a4,8(s0)
   142f0:	80010737          	lui	a4,0x80010
   142f4:	fff70713          	addi	a4,a4,-1 # 8000ffff <__global_pointer$+0x7ffece57>
   142f8:	00e42a23          	sw	a4,20(s0)
   142fc:	00100713          	li	a4,1
   14300:	00e41c23          	sh	a4,24(s0)
   14304:	00600713          	li	a4,6
   14308:	ec1ff06f          	j	141c8 <emdnorm+0x100>
   1430c:	00600693          	li	a3,6
   14310:	00800737          	lui	a4,0x800
   14314:	0ff70713          	addi	a4,a4,255 # 8000ff <__global_pointer$+0x7dcf57>
   14318:	00e42a23          	sw	a4,20(s0)
   1431c:	00d42423          	sw	a3,8(s0)
   14320:	10000713          	li	a4,256
   14324:	fb9ff06f          	j	142dc <emdnorm+0x214>
   14328:	04000737          	lui	a4,0x4000
   1432c:	7ff70713          	addi	a4,a4,2047 # 40007ff <__global_pointer$+0x3fdd657>
   14330:	00600693          	li	a3,6
   14334:	00e42a23          	sw	a4,20(s0)
   14338:	00001737          	lui	a4,0x1
   1433c:	00d42423          	sw	a3,8(s0)
   14340:	80070713          	addi	a4,a4,-2048 # 800 <_start-0xf874>
   14344:	f99ff06f          	j	142dc <emdnorm+0x214>
   14348:	00400693          	li	a3,4
   1434c:	fc5ff06f          	j	14310 <emdnorm+0x248>
   14350:	00265503          	lhu	a0,2(a2)
   14354:	00050463          	beqz	a0,1435c <emdnorm+0x294>
   14358:	0017e793          	ori	a5,a5,1
   1435c:	00061123          	sh	zero,2(a2)
   14360:	00168693          	addi	a3,a3,1
   14364:	00260613          	addi	a2,a2,2
   14368:	ed5ff06f          	j	1423c <emdnorm+0x174>
   1436c:	f00a0ce3          	beqz	s4,14284 <emdnorm+0x1bc>
   14370:	01204c63          	bgtz	s2,14388 <emdnorm+0x2c0>
   14374:	00442703          	lw	a4,4(s0)
   14378:	09000793          	li	a5,144
   1437c:	00f70663          	beq	a4,a5,14388 <emdnorm+0x2c0>
   14380:	00048513          	mv	a0,s1
   14384:	cd0ff0ef          	jal	ra,13854 <eshup1>
   14388:	0044d783          	lhu	a5,4(s1)
   1438c:	00078863          	beqz	a5,1439c <emdnorm+0x2d4>
   14390:	00048513          	mv	a0,s1
   14394:	c70ff0ef          	jal	ra,13804 <eshdn1>
   14398:	00190913          	addi	s2,s2,1
   1439c:	000087b7          	lui	a5,0x8
   143a0:	00049c23          	sh	zero,24(s1)
   143a4:	ffe78793          	addi	a5,a5,-2 # 7ffe <_start-0x8076>
   143a8:	0327d463          	ble	s2,a5,143d0 <emdnorm+0x308>
   143ac:	ffff87b7          	lui	a5,0xffff8
   143b0:	fff7c793          	not	a5,a5
   143b4:	00f49123          	sh	a5,2(s1)
   143b8:	00448793          	addi	a5,s1,4
   143bc:	01848493          	addi	s1,s1,24
   143c0:	00079023          	sh	zero,0(a5) # ffff8000 <__global_pointer$+0xfffd4e58>
   143c4:	00278793          	addi	a5,a5,2
   143c8:	fef49ce3          	bne	s1,a5,143c0 <emdnorm+0x2f8>
   143cc:	d65ff06f          	j	14130 <emdnorm+0x68>
   143d0:	00095663          	bgez	s2,143dc <emdnorm+0x314>
   143d4:	00049123          	sh	zero,2(s1)
   143d8:	d59ff06f          	j	14130 <emdnorm+0x68>
   143dc:	01249123          	sh	s2,2(s1)
   143e0:	d51ff06f          	j	14130 <emdnorm+0x68>
   143e4:	d80a98e3          	bnez	s5,14174 <emdnorm+0xac>
   143e8:	00049c23          	sh	zero,24(s1)
   143ec:	fc1ff06f          	j	143ac <emdnorm+0x2e4>

000143f0 <eiremain>:
   143f0:	fe010113          	addi	sp,sp,-32
   143f4:	01412423          	sw	s4,8(sp)
   143f8:	00255a03          	lhu	s4,2(a0)
   143fc:	00812c23          	sw	s0,24(sp)
   14400:	00058413          	mv	s0,a1
   14404:	00112e23          	sw	ra,28(sp)
   14408:	00912a23          	sw	s1,20(sp)
   1440c:	01212823          	sw	s2,16(sp)
   14410:	01512223          	sw	s5,4(sp)
   14414:	01612023          	sw	s6,0(sp)
   14418:	00060913          	mv	s2,a2
   1441c:	03460b13          	addi	s6,a2,52
   14420:	01312623          	sw	s3,12(sp)
   14424:	00050a93          	mv	s5,a0
   14428:	a29ff0ef          	jal	ra,13e50 <enormlz>
   1442c:	00245483          	lhu	s1,2(s0)
   14430:	40aa0a33          	sub	s4,s4,a0
   14434:	00040513          	mv	a0,s0
   14438:	a19ff0ef          	jal	ra,13e50 <enormlz>
   1443c:	40a484b3          	sub	s1,s1,a0
   14440:	000b0513          	mv	a0,s6
   14444:	b4cff0ef          	jal	ra,13790 <ecleaz>
   14448:	0544d263          	ble	s4,s1,1448c <eiremain+0x9c>
   1444c:	00040513          	mv	a0,s0
   14450:	01812403          	lw	s0,24(sp)
   14454:	01c12083          	lw	ra,28(sp)
   14458:	00c12983          	lw	s3,12(sp)
   1445c:	00812a03          	lw	s4,8(sp)
   14460:	00412a83          	lw	s5,4(sp)
   14464:	00012b03          	lw	s6,0(sp)
   14468:	00090793          	mv	a5,s2
   1446c:	00048693          	mv	a3,s1
   14470:	01012903          	lw	s2,16(sp)
   14474:	01412483          	lw	s1,20(sp)
   14478:	00000713          	li	a4,0
   1447c:	00000613          	li	a2,0
   14480:	00000593          	li	a1,0
   14484:	02010113          	addi	sp,sp,32
   14488:	c41ff06f          	j	140c8 <emdnorm>
   1448c:	00040593          	mv	a1,s0
   14490:	000a8513          	mv	a0,s5
   14494:	b34ff0ef          	jal	ra,137c8 <ecmpm>
   14498:	00000993          	li	s3,0
   1449c:	00a04a63          	bgtz	a0,144b0 <eiremain+0xc0>
   144a0:	00040593          	mv	a1,s0
   144a4:	000a8513          	mv	a0,s5
   144a8:	cdcff0ef          	jal	ra,13984 <esubm>
   144ac:	00100993          	li	s3,1
   144b0:	000b0513          	mv	a0,s6
   144b4:	ba0ff0ef          	jal	ra,13854 <eshup1>
   144b8:	04c95783          	lhu	a5,76(s2)
   144bc:	00040513          	mv	a0,s0
   144c0:	fff48493          	addi	s1,s1,-1
   144c4:	00f9e9b3          	or	s3,s3,a5
   144c8:	05391623          	sh	s3,76(s2)
   144cc:	b88ff0ef          	jal	ra,13854 <eshup1>
   144d0:	f79ff06f          	j	14448 <eiremain+0x58>

000144d4 <emul>:
   144d4:	f7010113          	addi	sp,sp,-144
   144d8:	08812423          	sw	s0,136(sp)
   144dc:	08912223          	sw	s1,132(sp)
   144e0:	09212023          	sw	s2,128(sp)
   144e4:	07312e23          	sw	s3,124(sp)
   144e8:	08112623          	sw	ra,140(sp)
   144ec:	07412c23          	sw	s4,120(sp)
   144f0:	07512a23          	sw	s5,116(sp)
   144f4:	07612823          	sw	s6,112(sp)
   144f8:	07712623          	sw	s7,108(sp)
   144fc:	07812423          	sw	s8,104(sp)
   14500:	07912223          	sw	s9,100(sp)
   14504:	00050493          	mv	s1,a0
   14508:	00058413          	mv	s0,a1
   1450c:	00060913          	mv	s2,a2
   14510:	00068993          	mv	s3,a3
   14514:	d44ff0ef          	jal	ra,13a58 <eisnan>
   14518:	04050263          	beqz	a0,1455c <emul+0x88>
   1451c:	00090593          	mv	a1,s2
   14520:	00048513          	mv	a0,s1
   14524:	a50ff0ef          	jal	ra,13774 <emov>
   14528:	08c12083          	lw	ra,140(sp)
   1452c:	08812403          	lw	s0,136(sp)
   14530:	08412483          	lw	s1,132(sp)
   14534:	08012903          	lw	s2,128(sp)
   14538:	07c12983          	lw	s3,124(sp)
   1453c:	07812a03          	lw	s4,120(sp)
   14540:	07412a83          	lw	s5,116(sp)
   14544:	07012b03          	lw	s6,112(sp)
   14548:	06c12b83          	lw	s7,108(sp)
   1454c:	06812c03          	lw	s8,104(sp)
   14550:	06412c83          	lw	s9,100(sp)
   14554:	09010113          	addi	sp,sp,144
   14558:	00008067          	ret
   1455c:	00040513          	mv	a0,s0
   14560:	cf8ff0ef          	jal	ra,13a58 <eisnan>
   14564:	00050863          	beqz	a0,14574 <emul+0xa0>
   14568:	00090593          	mv	a1,s2
   1456c:	00040513          	mv	a0,s0
   14570:	fb5ff06f          	j	14524 <emul+0x50>
   14574:	00048513          	mv	a0,s1
   14578:	f24ff0ef          	jal	ra,13c9c <eisinf>
   1457c:	06051463          	bnez	a0,145e4 <emul+0x110>
   14580:	00040513          	mv	a0,s0
   14584:	f18ff0ef          	jal	ra,13c9c <eisinf>
   14588:	00050c63          	beqz	a0,145a0 <emul+0xcc>
   1458c:	000215b7          	lui	a1,0x21
   14590:	a8458593          	addi	a1,a1,-1404 # 20a84 <ezero>
   14594:	00048513          	mv	a0,s1
   14598:	dfcff0ef          	jal	ra,13b94 <ecmp>
   1459c:	04050e63          	beqz	a0,145f8 <emul+0x124>
   145a0:	00048513          	mv	a0,s1
   145a4:	ef8ff0ef          	jal	ra,13c9c <eisinf>
   145a8:	00051863          	bnez	a0,145b8 <emul+0xe4>
   145ac:	00040513          	mv	a0,s0
   145b0:	eecff0ef          	jal	ra,13c9c <eisinf>
   145b4:	04050c63          	beqz	a0,1460c <emul+0x138>
   145b8:	00048513          	mv	a0,s1
   145bc:	cd0ff0ef          	jal	ra,13a8c <eisneg>
   145c0:	00050493          	mv	s1,a0
   145c4:	00040513          	mv	a0,s0
   145c8:	cc4ff0ef          	jal	ra,13a8c <eisneg>
   145cc:	02a48c63          	beq	s1,a0,14604 <emul+0x130>
   145d0:	ffff87b7          	lui	a5,0xffff8
   145d4:	00f91923          	sh	a5,18(s2)
   145d8:	00090513          	mv	a0,s2
   145dc:	ef4ff0ef          	jal	ra,13cd0 <einfin.isra.2>
   145e0:	f49ff06f          	j	14528 <emul+0x54>
   145e4:	000215b7          	lui	a1,0x21
   145e8:	a8458593          	addi	a1,a1,-1404 # 20a84 <ezero>
   145ec:	00040513          	mv	a0,s0
   145f0:	da4ff0ef          	jal	ra,13b94 <ecmp>
   145f4:	f80516e3          	bnez	a0,14580 <emul+0xac>
   145f8:	00090513          	mv	a0,s2
   145fc:	92dff0ef          	jal	ra,13f28 <enan.constprop.12>
   14600:	f29ff06f          	j	14528 <emul+0x54>
   14604:	00091923          	sh	zero,18(s2)
   14608:	fd1ff06f          	j	145d8 <emul+0x104>
   1460c:	00048513          	mv	a0,s1
   14610:	00c10593          	addi	a1,sp,12
   14614:	cb0ff0ef          	jal	ra,13ac4 <emovi>
   14618:	00040513          	mv	a0,s0
   1461c:	02810593          	addi	a1,sp,40
   14620:	ca4ff0ef          	jal	ra,13ac4 <emovi>
   14624:	00e15403          	lhu	s0,14(sp)
   14628:	02a15483          	lhu	s1,42(sp)
   1462c:	02041463          	bnez	s0,14654 <emul+0x180>
   14630:	00000793          	li	a5,0
   14634:	01600713          	li	a4,22
   14638:	00c10693          	addi	a3,sp,12
   1463c:	00f686b3          	add	a3,a3,a5
   14640:	0026d683          	lhu	a3,2(a3)
   14644:	10068a63          	beqz	a3,14758 <emul+0x284>
   14648:	00c10513          	addi	a0,sp,12
   1464c:	805ff0ef          	jal	ra,13e50 <enormlz>
   14650:	40a00433          	neg	s0,a0
   14654:	02a15783          	lhu	a5,42(sp)
   14658:	00048c13          	mv	s8,s1
   1465c:	02079263          	bnez	a5,14680 <emul+0x1ac>
   14660:	01600713          	li	a4,22
   14664:	02810693          	addi	a3,sp,40
   14668:	00f686b3          	add	a3,a3,a5
   1466c:	0026d683          	lhu	a3,2(a3)
   14670:	0e068e63          	beqz	a3,1476c <emul+0x298>
   14674:	02810513          	addi	a0,sp,40
   14678:	fd8ff0ef          	jal	ra,13e50 <enormlz>
   1467c:	40a48c33          	sub	s8,s1,a0
   14680:	02815783          	lhu	a5,40(sp)
   14684:	03498b93          	addi	s7,s3,52
   14688:	03898493          	addi	s1,s3,56
   1468c:	02f99a23          	sh	a5,52(s3)
   14690:	02a15783          	lhu	a5,42(sp)
   14694:	000b8a13          	mv	s4,s7
   14698:	02f99b23          	sh	a5,54(s3)
   1469c:	04e98793          	addi	a5,s3,78
   146a0:	00049023          	sh	zero,0(s1)
   146a4:	00248493          	addi	s1,s1,2
   146a8:	fe979ce3          	bne	a5,s1,146a0 <emul+0x1cc>
   146ac:	00000a93          	li	s5,0
   146b0:	00000b13          	li	s6,0
   146b4:	fec00c93          	li	s9,-20
   146b8:	00c10793          	addi	a5,sp,12
   146bc:	015787b3          	add	a5,a5,s5
   146c0:	0187d503          	lhu	a0,24(a5) # ffff8018 <__global_pointer$+0xfffd4e70>
   146c4:	00050e63          	beqz	a0,146e0 <emul+0x20c>
   146c8:	02810593          	addi	a1,sp,40
   146cc:	04410613          	addi	a2,sp,68
   146d0:	aecff0ef          	jal	ra,139bc <m16m>
   146d4:	000b8593          	mv	a1,s7
   146d8:	04410513          	addi	a0,sp,68
   146dc:	a70ff0ef          	jal	ra,1394c <eaddm>
   146e0:	04c9d783          	lhu	a5,76(s3)
   146e4:	000b8513          	mv	a0,s7
   146e8:	ffea8a93          	addi	s5,s5,-2
   146ec:	00fb6b33          	or	s6,s6,a5
   146f0:	a34ff0ef          	jal	ra,13924 <eshdn6>
   146f4:	fd9a92e3          	bne	s5,s9,146b8 <emul+0x1e4>
   146f8:	02810793          	addi	a5,sp,40
   146fc:	000a5703          	lhu	a4,0(s4)
   14700:	002a0a13          	addi	s4,s4,2
   14704:	00278793          	addi	a5,a5,2
   14708:	fee79f23          	sh	a4,-2(a5)
   1470c:	fe9a18e3          	bne	s4,s1,146fc <emul+0x228>
   14710:	ffffc6b7          	lui	a3,0xffffc
   14714:	01840433          	add	s0,s0,s8
   14718:	00268693          	addi	a3,a3,2 # ffffc002 <__global_pointer$+0xfffd8e5a>
   1471c:	00098793          	mv	a5,s3
   14720:	04000713          	li	a4,64
   14724:	00d406b3          	add	a3,s0,a3
   14728:	00000613          	li	a2,0
   1472c:	000b0593          	mv	a1,s6
   14730:	02810513          	addi	a0,sp,40
   14734:	995ff0ef          	jal	ra,140c8 <emdnorm>
   14738:	00c15703          	lhu	a4,12(sp)
   1473c:	02815783          	lhu	a5,40(sp)
   14740:	02f71c63          	bne	a4,a5,14778 <emul+0x2a4>
   14744:	02011423          	sh	zero,40(sp)
   14748:	00090593          	mv	a1,s2
   1474c:	02810513          	addi	a0,sp,40
   14750:	801ff0ef          	jal	ra,13f50 <emovo.isra.6>
   14754:	dd5ff06f          	j	14528 <emul+0x54>
   14758:	00278793          	addi	a5,a5,2
   1475c:	ece79ee3          	bne	a5,a4,14638 <emul+0x164>
   14760:	00090513          	mv	a0,s2
   14764:	ffdfe0ef          	jal	ra,13760 <eclear>
   14768:	dc1ff06f          	j	14528 <emul+0x54>
   1476c:	00278793          	addi	a5,a5,2
   14770:	eee79ae3          	bne	a5,a4,14664 <emul+0x190>
   14774:	fedff06f          	j	14760 <emul+0x28c>
   14778:	fff00793          	li	a5,-1
   1477c:	02f11423          	sh	a5,40(sp)
   14780:	fc9ff06f          	j	14748 <emul+0x274>

00014784 <ediv>:
   14784:	f7010113          	addi	sp,sp,-144
   14788:	08812423          	sw	s0,136(sp)
   1478c:	08912223          	sw	s1,132(sp)
   14790:	09212023          	sw	s2,128(sp)
   14794:	07512a23          	sw	s5,116(sp)
   14798:	08112623          	sw	ra,140(sp)
   1479c:	07312e23          	sw	s3,124(sp)
   147a0:	07412c23          	sw	s4,120(sp)
   147a4:	07612823          	sw	s6,112(sp)
   147a8:	07712623          	sw	s7,108(sp)
   147ac:	07812423          	sw	s8,104(sp)
   147b0:	07912223          	sw	s9,100(sp)
   147b4:	07a12023          	sw	s10,96(sp)
   147b8:	00050493          	mv	s1,a0
   147bc:	00058413          	mv	s0,a1
   147c0:	00060913          	mv	s2,a2
   147c4:	00068a93          	mv	s5,a3
   147c8:	a90ff0ef          	jal	ra,13a58 <eisnan>
   147cc:	04050463          	beqz	a0,14814 <ediv+0x90>
   147d0:	00090593          	mv	a1,s2
   147d4:	00048513          	mv	a0,s1
   147d8:	f9dfe0ef          	jal	ra,13774 <emov>
   147dc:	08c12083          	lw	ra,140(sp)
   147e0:	08812403          	lw	s0,136(sp)
   147e4:	08412483          	lw	s1,132(sp)
   147e8:	08012903          	lw	s2,128(sp)
   147ec:	07c12983          	lw	s3,124(sp)
   147f0:	07812a03          	lw	s4,120(sp)
   147f4:	07412a83          	lw	s5,116(sp)
   147f8:	07012b03          	lw	s6,112(sp)
   147fc:	06c12b83          	lw	s7,108(sp)
   14800:	06812c03          	lw	s8,104(sp)
   14804:	06412c83          	lw	s9,100(sp)
   14808:	06012d03          	lw	s10,96(sp)
   1480c:	09010113          	addi	sp,sp,144
   14810:	00008067          	ret
   14814:	00040513          	mv	a0,s0
   14818:	a40ff0ef          	jal	ra,13a58 <eisnan>
   1481c:	00050863          	beqz	a0,1482c <ediv+0xa8>
   14820:	00090593          	mv	a1,s2
   14824:	00040513          	mv	a0,s0
   14828:	fb1ff06f          	j	147d8 <ediv+0x54>
   1482c:	000219b7          	lui	s3,0x21
   14830:	a8498593          	addi	a1,s3,-1404 # 20a84 <ezero>
   14834:	00048513          	mv	a0,s1
   14838:	b5cff0ef          	jal	ra,13b94 <ecmp>
   1483c:	1e050663          	beqz	a0,14a28 <ediv+0x2a4>
   14840:	00048513          	mv	a0,s1
   14844:	c58ff0ef          	jal	ra,13c9c <eisinf>
   14848:	00050993          	mv	s3,a0
   1484c:	00040513          	mv	a0,s0
   14850:	c4cff0ef          	jal	ra,13c9c <eisinf>
   14854:	1e099863          	bnez	s3,14a44 <ediv+0x2c0>
   14858:	1e051e63          	bnez	a0,14a54 <ediv+0x2d0>
   1485c:	00048513          	mv	a0,s1
   14860:	00c10593          	addi	a1,sp,12
   14864:	a60ff0ef          	jal	ra,13ac4 <emovi>
   14868:	00040513          	mv	a0,s0
   1486c:	02810593          	addi	a1,sp,40
   14870:	a54ff0ef          	jal	ra,13ac4 <emovi>
   14874:	02a15483          	lhu	s1,42(sp)
   14878:	00e15403          	lhu	s0,14(sp)
   1487c:	02049463          	bnez	s1,148a4 <ediv+0x120>
   14880:	00000793          	li	a5,0
   14884:	01600713          	li	a4,22
   14888:	02810693          	addi	a3,sp,40
   1488c:	00f686b3          	add	a3,a3,a5
   14890:	0026d683          	lhu	a3,2(a3)
   14894:	1e068663          	beqz	a3,14a80 <ediv+0x2fc>
   14898:	02810513          	addi	a0,sp,40
   1489c:	db4ff0ef          	jal	ra,13e50 <enormlz>
   148a0:	40a004b3          	neg	s1,a0
   148a4:	00e15783          	lhu	a5,14(sp)
   148a8:	00040b93          	mv	s7,s0
   148ac:	02079263          	bnez	a5,148d0 <ediv+0x14c>
   148b0:	01600713          	li	a4,22
   148b4:	00c10693          	addi	a3,sp,12
   148b8:	00f686b3          	add	a3,a3,a5
   148bc:	0026d683          	lhu	a3,2(a3)
   148c0:	1c068663          	beqz	a3,14a8c <ediv+0x308>
   148c4:	00c10513          	addi	a0,sp,12
   148c8:	d88ff0ef          	jal	ra,13e50 <enormlz>
   148cc:	40a40bb3          	sub	s7,s0,a0
   148d0:	02815783          	lhu	a5,40(sp)
   148d4:	02a15703          	lhu	a4,42(sp)
   148d8:	034a8993          	addi	s3,s5,52
   148dc:	02fa9a23          	sh	a5,52(s5)
   148e0:	038a8793          	addi	a5,s5,56
   148e4:	02ea9b23          	sh	a4,54(s5)
   148e8:	00078a13          	mv	s4,a5
   148ec:	04ea8713          	addi	a4,s5,78
   148f0:	00278793          	addi	a5,a5,2
   148f4:	fe079f23          	sh	zero,-2(a5)
   148f8:	fee79ce3          	bne	a5,a4,148f0 <ediv+0x16c>
   148fc:	02810513          	addi	a0,sp,40
   14900:	f05fe0ef          	jal	ra,13804 <eshdn1>
   14904:	01215c03          	lhu	s8,18(sp)
   14908:	00010b37          	lui	s6,0x10
   1490c:	fffb0b13          	addi	s6,s6,-1 # ffff <_start-0x75>
   14910:	036c0d33          	mul	s10,s8,s6
   14914:	01a98c93          	addi	s9,s3,26
   14918:	02c15783          	lhu	a5,44(sp)
   1491c:	02e15403          	lhu	s0,46(sp)
   14920:	01079793          	slli	a5,a5,0x10
   14924:	008787b3          	add	a5,a5,s0
   14928:	000b0413          	mv	s0,s6
   1492c:	00fd6863          	bltu	s10,a5,1493c <ediv+0x1b8>
   14930:	0387d433          	divu	s0,a5,s8
   14934:	01041413          	slli	s0,s0,0x10
   14938:	01045413          	srli	s0,s0,0x10
   1493c:	00c10593          	addi	a1,sp,12
   14940:	00040513          	mv	a0,s0
   14944:	04410613          	addi	a2,sp,68
   14948:	874ff0ef          	jal	ra,139bc <m16m>
   1494c:	02810593          	addi	a1,sp,40
   14950:	04410513          	addi	a0,sp,68
   14954:	e75fe0ef          	jal	ra,137c8 <ecmpm>
   14958:	02a05663          	blez	a0,14984 <ediv+0x200>
   1495c:	04410593          	addi	a1,sp,68
   14960:	00c10513          	addi	a0,sp,12
   14964:	820ff0ef          	jal	ra,13984 <esubm>
   14968:	02810593          	addi	a1,sp,40
   1496c:	04410513          	addi	a0,sp,68
   14970:	e59fe0ef          	jal	ra,137c8 <ecmpm>
   14974:	12a04a63          	bgtz	a0,14aa8 <ediv+0x324>
   14978:	fff40413          	addi	s0,s0,-1
   1497c:	01041413          	slli	s0,s0,0x10
   14980:	01045413          	srli	s0,s0,0x10
   14984:	02810593          	addi	a1,sp,40
   14988:	04410513          	addi	a0,sp,68
   1498c:	ff9fe0ef          	jal	ra,13984 <esubm>
   14990:	02810513          	addi	a0,sp,40
   14994:	008a1023          	sh	s0,0(s4)
   14998:	002a0a13          	addi	s4,s4,2
   1499c:	f69fe0ef          	jal	ra,13904 <eshup6>
   149a0:	f79a1ce3          	bne	s4,s9,14918 <ediv+0x194>
   149a4:	00000793          	li	a5,0
   149a8:	00000593          	li	a1,0
   149ac:	01600713          	li	a4,22
   149b0:	02810693          	addi	a3,sp,40
   149b4:	00f686b3          	add	a3,a3,a5
   149b8:	0046d683          	lhu	a3,4(a3)
   149bc:	00278793          	addi	a5,a5,2
   149c0:	00d5e5b3          	or	a1,a1,a3
   149c4:	fee796e3          	bne	a5,a4,149b0 <ediv+0x22c>
   149c8:	00b035b3          	snez	a1,a1
   149cc:	02810793          	addi	a5,sp,40
   149d0:	0009d703          	lhu	a4,0(s3)
   149d4:	00298993          	addi	s3,s3,2
   149d8:	00278793          	addi	a5,a5,2
   149dc:	fee79f23          	sh	a4,-2(a5)
   149e0:	ff3a18e3          	bne	s4,s3,149d0 <ediv+0x24c>
   149e4:	000046b7          	lui	a3,0x4
   149e8:	417484b3          	sub	s1,s1,s7
   149ec:	fff68693          	addi	a3,a3,-1 # 3fff <_start-0xc075>
   149f0:	000a8793          	mv	a5,s5
   149f4:	04000713          	li	a4,64
   149f8:	00d486b3          	add	a3,s1,a3
   149fc:	00000613          	li	a2,0
   14a00:	02810513          	addi	a0,sp,40
   14a04:	ec4ff0ef          	jal	ra,140c8 <emdnorm>
   14a08:	00c15703          	lhu	a4,12(sp)
   14a0c:	02815783          	lhu	a5,40(sp)
   14a10:	0af71a63          	bne	a4,a5,14ac4 <ediv+0x340>
   14a14:	02011423          	sh	zero,40(sp)
   14a18:	00090593          	mv	a1,s2
   14a1c:	02810513          	addi	a0,sp,40
   14a20:	d30ff0ef          	jal	ra,13f50 <emovo.isra.6>
   14a24:	db9ff06f          	j	147dc <ediv+0x58>
   14a28:	a8498593          	addi	a1,s3,-1404
   14a2c:	00040513          	mv	a0,s0
   14a30:	964ff0ef          	jal	ra,13b94 <ecmp>
   14a34:	e00516e3          	bnez	a0,14840 <ediv+0xbc>
   14a38:	00090513          	mv	a0,s2
   14a3c:	cecff0ef          	jal	ra,13f28 <enan.constprop.12>
   14a40:	d9dff06f          	j	147dc <ediv+0x58>
   14a44:	fe051ae3          	bnez	a0,14a38 <ediv+0x2b4>
   14a48:	00090513          	mv	a0,s2
   14a4c:	d15fe0ef          	jal	ra,13760 <eclear>
   14a50:	d8dff06f          	j	147dc <ediv+0x58>
   14a54:	00048513          	mv	a0,s1
   14a58:	834ff0ef          	jal	ra,13a8c <eisneg>
   14a5c:	00050493          	mv	s1,a0
   14a60:	00040513          	mv	a0,s0
   14a64:	828ff0ef          	jal	ra,13a8c <eisneg>
   14a68:	02a48c63          	beq	s1,a0,14aa0 <ediv+0x31c>
   14a6c:	ffff87b7          	lui	a5,0xffff8
   14a70:	00f91923          	sh	a5,18(s2)
   14a74:	00090513          	mv	a0,s2
   14a78:	a58ff0ef          	jal	ra,13cd0 <einfin.isra.2>
   14a7c:	d61ff06f          	j	147dc <ediv+0x58>
   14a80:	00278793          	addi	a5,a5,2 # ffff8002 <__global_pointer$+0xfffd4e5a>
   14a84:	e0e792e3          	bne	a5,a4,14888 <ediv+0x104>
   14a88:	fc1ff06f          	j	14a48 <ediv+0x2c4>
   14a8c:	00278793          	addi	a5,a5,2
   14a90:	e2e792e3          	bne	a5,a4,148b4 <ediv+0x130>
   14a94:	00c15703          	lhu	a4,12(sp)
   14a98:	02815783          	lhu	a5,40(sp)
   14a9c:	fcf718e3          	bne	a4,a5,14a6c <ediv+0x2e8>
   14aa0:	00091923          	sh	zero,18(s2)
   14aa4:	fd1ff06f          	j	14a74 <ediv+0x2f0>
   14aa8:	ffe40413          	addi	s0,s0,-2
   14aac:	01041413          	slli	s0,s0,0x10
   14ab0:	04410593          	addi	a1,sp,68
   14ab4:	00c10513          	addi	a0,sp,12
   14ab8:	01045413          	srli	s0,s0,0x10
   14abc:	ec9fe0ef          	jal	ra,13984 <esubm>
   14ac0:	ec5ff06f          	j	14984 <ediv+0x200>
   14ac4:	fff00793          	li	a5,-1
   14ac8:	02f11423          	sh	a5,40(sp)
   14acc:	f4dff06f          	j	14a18 <ediv+0x294>

00014ad0 <_ldtoa_r>:
   14ad0:	0005ae03          	lw	t3,0(a1)
   14ad4:	0045a303          	lw	t1,4(a1)
   14ad8:	0085a883          	lw	a7,8(a1)
   14adc:	00c5a583          	lw	a1,12(a1)
   14ae0:	e2010113          	addi	sp,sp,-480
   14ae4:	1c812c23          	sw	s0,472(sp)
   14ae8:	02b12623          	sw	a1,44(sp)
   14aec:	00078413          	mv	s0,a5
   14af0:	04052583          	lw	a1,64(a0)
   14af4:	fff00793          	li	a5,-1
   14af8:	14f12823          	sw	a5,336(sp)
   14afc:	09000793          	li	a5,144
   14b00:	1d412423          	sw	s4,456(sp)
   14b04:	1d512223          	sw	s5,452(sp)
   14b08:	1b712e23          	sw	s7,444(sp)
   14b0c:	1b912a23          	sw	s9,436(sp)
   14b10:	1c112e23          	sw	ra,476(sp)
   14b14:	1c912a23          	sw	s1,468(sp)
   14b18:	1d212823          	sw	s2,464(sp)
   14b1c:	1d312623          	sw	s3,460(sp)
   14b20:	1d612023          	sw	s6,448(sp)
   14b24:	1b812c23          	sw	s8,440(sp)
   14b28:	1ba12823          	sw	s10,432(sp)
   14b2c:	1bb12623          	sw	s11,428(sp)
   14b30:	01012623          	sw	a6,12(sp)
   14b34:	03c12023          	sw	t3,32(sp)
   14b38:	02612223          	sw	t1,36(sp)
   14b3c:	03112423          	sw	a7,40(sp)
   14b40:	14f12a23          	sw	a5,340(sp)
   14b44:	00050a13          	mv	s4,a0
   14b48:	00060b93          	mv	s7,a2
   14b4c:	00068a93          	mv	s5,a3
   14b50:	00070c93          	mv	s9,a4
   14b54:	02058063          	beqz	a1,14b74 <_ldtoa_r+0xa4>
   14b58:	04452783          	lw	a5,68(a0)
   14b5c:	00100713          	li	a4,1
   14b60:	00f71733          	sll	a4,a4,a5
   14b64:	00f5a223          	sw	a5,4(a1)
   14b68:	00e5a423          	sw	a4,8(a1)
   14b6c:	770010ef          	jal	ra,162dc <_Bfree>
   14b70:	040a2023          	sw	zero,64(s4)
   14b74:	02010513          	addi	a0,sp,32
   14b78:	05010593          	addi	a1,sp,80
   14b7c:	c44ff0ef          	jal	ra,13fc0 <e113toe.isra.8>
   14b80:	05010513          	addi	a0,sp,80
   14b84:	f09fe0ef          	jal	ra,13a8c <eisneg>
   14b88:	0e050063          	beqz	a0,14c68 <_ldtoa_r+0x198>
   14b8c:	00100793          	li	a5,1
   14b90:	00f42023          	sw	a5,0(s0)
   14b94:	00300793          	li	a5,3
   14b98:	0cfb8c63          	beq	s7,a5,14c70 <_ldtoa_r+0x1a0>
   14b9c:	01400913          	li	s2,20
   14ba0:	000b8a63          	beqz	s7,14bb4 <_ldtoa_r+0xe4>
   14ba4:	fffa8913          	addi	s2,s5,-1
   14ba8:	02a00793          	li	a5,42
   14bac:	0127d463          	ble	s2,a5,14bb4 <_ldtoa_r+0xe4>
   14bb0:	02a00913          	li	s2,42
   14bb4:	15412783          	lw	a5,340(sp)
   14bb8:	05010513          	addi	a0,sp,80
   14bbc:	00f12823          	sw	a5,16(sp)
   14bc0:	e99fe0ef          	jal	ra,13a58 <eisnan>
   14bc4:	00050413          	mv	s0,a0
   14bc8:	0a050863          	beqz	a0,14c78 <_ldtoa_r+0x1a8>
   14bcc:	000215b7          	lui	a1,0x21
   14bd0:	cd858593          	addi	a1,a1,-808 # 20cd8 <emtens+0x104>
   14bd4:	11410513          	addi	a0,sp,276
   14bd8:	00002437          	lui	s0,0x2
   14bdc:	39d020ef          	jal	ra,17778 <sprintf>
   14be0:	70f40413          	addi	s0,s0,1807 # 270f <_start-0xd965>
   14be4:	01012783          	lw	a5,16(sp)
   14be8:	05010513          	addi	a0,sp,80
   14bec:	16812023          	sw	s0,352(sp)
   14bf0:	14f12a23          	sw	a5,340(sp)
   14bf4:	8a8ff0ef          	jal	ra,13c9c <eisinf>
   14bf8:	11410993          	addi	s3,sp,276
   14bfc:	00051863          	bnez	a0,14c0c <_ldtoa_r+0x13c>
   14c00:	05010513          	addi	a0,sp,80
   14c04:	e55fe0ef          	jal	ra,13a58 <eisnan>
   14c08:	180506e3          	beqz	a0,15594 <_ldtoa_r+0xac4>
   14c0c:	000027b7          	lui	a5,0x2
   14c10:	70f78793          	addi	a5,a5,1807 # 270f <_start-0xd965>
   14c14:	00fca023          	sw	a5,0(s9)
   14c18:	00098793          	mv	a5,s3
   14c1c:	02000613          	li	a2,32
   14c20:	02d00693          	li	a3,45
   14c24:	0007c703          	lbu	a4,0(a5)
   14c28:	1cc704e3          	beq	a4,a2,155f0 <_ldtoa_r+0xb20>
   14c2c:	1cd702e3          	beq	a4,a3,155f0 <_ldtoa_r+0xb20>
   14c30:	00098413          	mv	s0,s3
   14c34:	00178793          	addi	a5,a5,1
   14c38:	fff7c703          	lbu	a4,-1(a5)
   14c3c:	00140693          	addi	a3,s0,1
   14c40:	fee68fa3          	sb	a4,-1(a3)
   14c44:	1a071ae3          	bnez	a4,155f8 <_ldtoa_r+0xb28>
   14c48:	00200713          	li	a4,2
   14c4c:	00100793          	li	a5,1
   14c50:	00eb8863          	beq	s7,a4,14c60 <_ldtoa_r+0x190>
   14c54:	16012783          	lw	a5,352(sp)
   14c58:	0127d463          	ble	s2,a5,14c60 <_ldtoa_r+0x190>
   14c5c:	00090793          	mv	a5,s2
   14c60:	03000693          	li	a3,48
   14c64:	1a50006f          	j	15608 <_ldtoa_r+0xb38>
   14c68:	00042023          	sw	zero,0(s0)
   14c6c:	f29ff06f          	j	14b94 <_ldtoa_r+0xc4>
   14c70:	000a8913          	mv	s2,s5
   14c74:	f35ff06f          	j	14ba8 <_ldtoa_r+0xd8>
   14c78:	09000793          	li	a5,144
   14c7c:	06c10593          	addi	a1,sp,108
   14c80:	05010513          	addi	a0,sp,80
   14c84:	14f12a23          	sw	a5,340(sp)
   14c88:	aedfe0ef          	jal	ra,13774 <emov>
   14c8c:	07e15783          	lhu	a5,126(sp)
   14c90:	00012223          	sw	zero,4(sp)
   14c94:	01079713          	slli	a4,a5,0x10
   14c98:	41075713          	srai	a4,a4,0x10
   14c9c:	02075063          	bgez	a4,14cbc <_ldtoa_r+0x1ec>
   14ca0:	00008737          	lui	a4,0x8
   14ca4:	fff70713          	addi	a4,a4,-1 # 7fff <_start-0x8075>
   14ca8:	00e7f7b3          	and	a5,a5,a4
   14cac:	06f11f23          	sh	a5,126(sp)
   14cb0:	000107b7          	lui	a5,0x10
   14cb4:	fff78793          	addi	a5,a5,-1 # ffff <_start-0x75>
   14cb8:	00f12223          	sw	a5,4(sp)
   14cbc:	00021b37          	lui	s6,0x21
   14cc0:	a84b0513          	addi	a0,s6,-1404 # 20a84 <ezero>
   14cc4:	08810593          	addi	a1,sp,136
   14cc8:	01450513          	addi	a0,a0,20
   14ccc:	aa9fe0ef          	jal	ra,13774 <emov>
   14cd0:	07e15703          	lhu	a4,126(sp)
   14cd4:	000214b7          	lui	s1,0x21
   14cd8:	a84b0993          	addi	s3,s6,-1404
   14cdc:	a9848493          	addi	s1,s1,-1384 # 20a98 <eone>
   14ce0:	1e071ce3          	bnez	a4,156d8 <_ldtoa_r+0xc08>
   14ce4:	06c10713          	addi	a4,sp,108
   14ce8:	00000793          	li	a5,0
   14cec:	00900693          	li	a3,9
   14cf0:	00075603          	lhu	a2,0(a4)
   14cf4:	10061063          	bnez	a2,14df4 <_ldtoa_r+0x324>
   14cf8:	00178793          	addi	a5,a5,1
   14cfc:	00270713          	addi	a4,a4,2
   14d00:	fed798e3          	bne	a5,a3,14cf0 <_ldtoa_r+0x220>
   14d04:	0c010593          	addi	a1,sp,192
   14d08:	08810513          	addi	a0,sp,136
   14d0c:	db9fe0ef          	jal	ra,13ac4 <emovi>
   14d10:	08810593          	addi	a1,sp,136
   14d14:	0c010513          	addi	a0,sp,192
   14d18:	a8dfe0ef          	jal	ra,137a4 <emovz>
   14d1c:	0c010593          	addi	a1,sp,192
   14d20:	06c10513          	addi	a0,sp,108
   14d24:	da1fe0ef          	jal	ra,13ac4 <emovi>
   14d28:	06c10593          	addi	a1,sp,108
   14d2c:	0c010513          	addi	a0,sp,192
   14d30:	a75fe0ef          	jal	ra,137a4 <emovz>
   14d34:	15010613          	addi	a2,sp,336
   14d38:	06c10593          	addi	a1,sp,108
   14d3c:	08810513          	addi	a0,sp,136
   14d40:	eb0ff0ef          	jal	ra,143f0 <eiremain>
   14d44:	19c15483          	lhu	s1,412(sp)
   14d48:	00049a63          	bnez	s1,14d5c <_ldtoa_r+0x28c>
   14d4c:	a84b0593          	addi	a1,s6,-1404
   14d50:	06c10513          	addi	a0,sp,108
   14d54:	e41fe0ef          	jal	ra,13b94 <ecmp>
   14d58:	6a051463          	bnez	a0,15400 <_ldtoa_r+0x930>
   14d5c:	00412783          	lw	a5,4(sp)
   14d60:	6e078663          	beqz	a5,1544c <_ldtoa_r+0x97c>
   14d64:	02d00793          	li	a5,45
   14d68:	10f10a23          	sb	a5,276(sp)
   14d6c:	00300793          	li	a5,3
   14d70:	00090993          	mv	s3,s2
   14d74:	00fb9863          	bne	s7,a5,14d84 <_ldtoa_r+0x2b4>
   14d78:	008909b3          	add	s3,s2,s0
   14d7c:	02a00793          	li	a5,42
   14d80:	1737cce3          	blt	a5,s3,156f8 <_ldtoa_r+0xc28>
   14d84:	00a00793          	li	a5,10
   14d88:	6cf49663          	bne	s1,a5,15454 <_ldtoa_r+0x984>
   14d8c:	03100793          	li	a5,49
   14d90:	10f10aa3          	sb	a5,277(sp)
   14d94:	02e00793          	li	a5,46
   14d98:	10f10b23          	sb	a5,278(sp)
   14d9c:	11710c13          	addi	s8,sp,279
   14da0:	01305a63          	blez	s3,14db4 <_ldtoa_r+0x2e4>
   14da4:	03000793          	li	a5,48
   14da8:	10f10ba3          	sb	a5,279(sp)
   14dac:	fff98993          	addi	s3,s3,-1
   14db0:	11810c13          	addi	s8,sp,280
   14db4:	00140413          	addi	s0,s0,1
   14db8:	6a09d863          	bgez	s3,15468 <_ldtoa_r+0x998>
   14dbc:	000215b7          	lui	a1,0x21
   14dc0:	00040613          	mv	a2,s0
   14dc4:	cfc58593          	addi	a1,a1,-772 # 20cfc <emtens+0x128>
   14dc8:	000c0513          	mv	a0,s8
   14dcc:	1ad020ef          	jal	ra,17778 <sprintf>
   14dd0:	e15ff06f          	j	14be4 <_ldtoa_r+0x114>
   14dd4:	000215b7          	lui	a1,0x21
   14dd8:	cec58593          	addi	a1,a1,-788 # 20cec <emtens+0x118>
   14ddc:	df9ff06f          	j	14bd4 <_ldtoa_r+0x104>
   14de0:	07c11783          	lh	a5,124(sp)
   14de4:	0007c863          	bltz	a5,14df4 <_ldtoa_r+0x324>
   14de8:	000215b7          	lui	a1,0x21
   14dec:	cf858593          	addi	a1,a1,-776 # 20cf8 <emtens+0x124>
   14df0:	de5ff06f          	j	14bd4 <_ldtoa_r+0x104>
   14df4:	06c10593          	addi	a1,sp,108
   14df8:	00048513          	mv	a0,s1
   14dfc:	d99fe0ef          	jal	ra,13b94 <ecmp>
   14e00:	f00502e3          	beqz	a0,14d04 <_ldtoa_r+0x234>
   14e04:	46055663          	bgez	a0,15270 <_ldtoa_r+0x7a0>
   14e08:	0a410593          	addi	a1,sp,164
   14e0c:	06c10513          	addi	a0,sp,108
   14e10:	965fe0ef          	jal	ra,13774 <emov>
   14e14:	000047b7          	lui	a5,0x4
   14e18:	08e78793          	addi	a5,a5,142 # 408e <_start-0xbfe6>
   14e1c:	0af11b23          	sh	a5,182(sp)
   14e20:	01000793          	li	a5,16
   14e24:	00f12423          	sw	a5,8(sp)
   14e28:	000087b7          	lui	a5,0x8
   14e2c:	fff78793          	addi	a5,a5,-1 # 7fff <_start-0x8075>
   14e30:	00f12a23          	sw	a5,20(sp)
   14e34:	ffffc7b7          	lui	a5,0xffffc
   14e38:	00278793          	addi	a5,a5,2 # ffffc002 <__global_pointer$+0xfffd8e5a>
   14e3c:	00000d13          	li	s10,0
   14e40:	00f12c23          	sw	a5,24(sp)
   14e44:	000217b7          	lui	a5,0x21
   14e48:	b4c78793          	addi	a5,a5,-1204 # 20b4c <etens+0xa0>
   14e4c:	01a78533          	add	a0,a5,s10
   14e50:	15010693          	addi	a3,sp,336
   14e54:	08810613          	addi	a2,sp,136
   14e58:	0a410593          	addi	a1,sp,164
   14e5c:	929ff0ef          	jal	ra,14784 <ediv>
   14e60:	03c10593          	addi	a1,sp,60
   14e64:	08810513          	addi	a0,sp,136
   14e68:	90dfe0ef          	jal	ra,13774 <emov>
   14e6c:	01412783          	lw	a5,20(sp)
   14e70:	04e15c03          	lhu	s8,78(sp)
   14e74:	00fc7733          	and	a4,s8,a5
   14e78:	01812783          	lw	a5,24(sp)
   14e7c:	00f70733          	add	a4,a4,a5
   14e80:	04e04a63          	bgtz	a4,14ed4 <_ldtoa_r+0x404>
   14e84:	0c010513          	addi	a0,sp,192
   14e88:	8d9fe0ef          	jal	ra,13760 <eclear>
   14e8c:	010c1c13          	slli	s8,s8,0x10
   14e90:	410c5c13          	srai	s8,s8,0x10
   14e94:	100c5463          	bgez	s8,14f9c <_ldtoa_r+0x4cc>
   14e98:	00000793          	li	a5,0
   14e9c:	03c10713          	addi	a4,sp,60
   14ea0:	00f70733          	add	a4,a4,a5
   14ea4:	00075683          	lhu	a3,0(a4)
   14ea8:	0c010713          	addi	a4,sp,192
   14eac:	00f70733          	add	a4,a4,a5
   14eb0:	00075703          	lhu	a4,0(a4)
   14eb4:	3ae68663          	beq	a3,a4,15260 <_ldtoa_r+0x790>
   14eb8:	00048513          	mv	a0,s1
   14ebc:	b9dfe0ef          	jal	ra,13a58 <eisnan>
   14ec0:	08050263          	beqz	a0,14f44 <_ldtoa_r+0x474>
   14ec4:	0c010593          	addi	a1,sp,192
   14ec8:	00048513          	mv	a0,s1
   14ecc:	8a9fe0ef          	jal	ra,13774 <emov>
   14ed0:	0cc0006f          	j	14f9c <_ldtoa_r+0x4cc>
   14ed4:	09000793          	li	a5,144
   14ed8:	40e78db3          	sub	s11,a5,a4
   14edc:	0c010593          	addi	a1,sp,192
   14ee0:	03c10513          	addi	a0,sp,60
   14ee4:	891fe0ef          	jal	ra,13774 <emov>
   14ee8:	0bb05a63          	blez	s11,14f9c <_ldtoa_r+0x4cc>
   14eec:	0c010693          	addi	a3,sp,192
   14ef0:	000d8793          	mv	a5,s11
   14ef4:	00f00613          	li	a2,15
   14ef8:	02f64e63          	blt	a2,a5,14f34 <_ldtoa_r+0x464>
   14efc:	004dd793          	srli	a5,s11,0x4
   14f00:	ff000613          	li	a2,-16
   14f04:	00179693          	slli	a3,a5,0x1
   14f08:	02c787b3          	mul	a5,a5,a2
   14f0c:	0c010713          	addi	a4,sp,192
   14f10:	00d706b3          	add	a3,a4,a3
   14f14:	0006d703          	lhu	a4,0(a3)
   14f18:	01b787b3          	add	a5,a5,s11
   14f1c:	00179793          	slli	a5,a5,0x1
   14f20:	00f987b3          	add	a5,s3,a5
   14f24:	12c7d783          	lhu	a5,300(a5)
   14f28:	00e7f7b3          	and	a5,a5,a4
   14f2c:	00f69023          	sh	a5,0(a3)
   14f30:	f5dff06f          	j	14e8c <_ldtoa_r+0x3bc>
   14f34:	00069023          	sh	zero,0(a3)
   14f38:	ff078793          	addi	a5,a5,-16
   14f3c:	00268693          	addi	a3,a3,2
   14f40:	fb9ff06f          	j	14ef8 <_ldtoa_r+0x428>
   14f44:	0c010513          	addi	a0,sp,192
   14f48:	b11fe0ef          	jal	ra,13a58 <eisnan>
   14f4c:	00050863          	beqz	a0,14f5c <_ldtoa_r+0x48c>
   14f50:	0c010593          	addi	a1,sp,192
   14f54:	00058513          	mv	a0,a1
   14f58:	f75ff06f          	j	14ecc <_ldtoa_r+0x3fc>
   14f5c:	00048513          	mv	a0,s1
   14f60:	d3dfe0ef          	jal	ra,13c9c <eisinf>
   14f64:	00050d93          	mv	s11,a0
   14f68:	0c010513          	addi	a0,sp,192
   14f6c:	d31fe0ef          	jal	ra,13c9c <eisinf>
   14f70:	00050c13          	mv	s8,a0
   14f74:	140d8c63          	beqz	s11,150cc <_ldtoa_r+0x5fc>
   14f78:	12050463          	beqz	a0,150a0 <_ldtoa_r+0x5d0>
   14f7c:	00048513          	mv	a0,s1
   14f80:	b0dfe0ef          	jal	ra,13a8c <eisneg>
   14f84:	00050c13          	mv	s8,a0
   14f88:	0c010513          	addi	a0,sp,192
   14f8c:	b01fe0ef          	jal	ra,13a8c <eisneg>
   14f90:	10ac1863          	bne	s8,a0,150a0 <_ldtoa_r+0x5d0>
   14f94:	0c010513          	addi	a0,sp,192
   14f98:	f91fe0ef          	jal	ra,13f28 <enan.constprop.12>
   14f9c:	00000793          	li	a5,0
   14fa0:	08810713          	addi	a4,sp,136
   14fa4:	00f70733          	add	a4,a4,a5
   14fa8:	00075683          	lhu	a3,0(a4)
   14fac:	0c010713          	addi	a4,sp,192
   14fb0:	00f70733          	add	a4,a4,a5
   14fb4:	00075703          	lhu	a4,0(a4)
   14fb8:	02e69263          	bne	a3,a4,14fdc <_ldtoa_r+0x50c>
   14fbc:	00278793          	addi	a5,a5,2
   14fc0:	01200713          	li	a4,18
   14fc4:	fce79ee3          	bne	a5,a4,14fa0 <_ldtoa_r+0x4d0>
   14fc8:	0a410593          	addi	a1,sp,164
   14fcc:	08810513          	addi	a0,sp,136
   14fd0:	fa4fe0ef          	jal	ra,13774 <emov>
   14fd4:	00812783          	lw	a5,8(sp)
   14fd8:	00f40433          	add	s0,s0,a5
   14fdc:	00812783          	lw	a5,8(sp)
   14fe0:	014d0d13          	addi	s10,s10,20
   14fe4:	0017d793          	srli	a5,a5,0x1
   14fe8:	00f12423          	sw	a5,8(sp)
   14fec:	06400793          	li	a5,100
   14ff0:	e4fd1ae3          	bne	s10,a5,14e44 <_ldtoa_r+0x374>
   14ff4:	0b615783          	lhu	a5,182(sp)
   14ff8:	07e15703          	lhu	a4,126(sp)
   14ffc:	06c10593          	addi	a1,sp,108
   15000:	0a410513          	addi	a0,sp,164
   15004:	00e787b3          	add	a5,a5,a4
   15008:	ffffc737          	lui	a4,0xffffc
   1500c:	f7270713          	addi	a4,a4,-142 # ffffbf72 <__global_pointer$+0xfffd8dca>
   15010:	00e787b3          	add	a5,a5,a4
   15014:	0af11b23          	sh	a5,182(sp)
   15018:	f5cfe0ef          	jal	ra,13774 <emov>
   1501c:	00048513          	mv	a0,s1
   15020:	08810593          	addi	a1,sp,136
   15024:	f50fe0ef          	jal	ra,13774 <emov>
   15028:	00000493          	li	s1,0
   1502c:	00001d37          	lui	s10,0x1
   15030:	11898993          	addi	s3,s3,280
   15034:	10400d93          	li	s11,260
   15038:	000217b7          	lui	a5,0x21
   1503c:	aac78793          	addi	a5,a5,-1364 # 20aac <etens>
   15040:	0a410593          	addi	a1,sp,164
   15044:	00098513          	mv	a0,s3
   15048:	00978c33          	add	s8,a5,s1
   1504c:	b49fe0ef          	jal	ra,13b94 <ecmp>
   15050:	caa04ae3          	bgtz	a0,14d04 <_ldtoa_r+0x234>
   15054:	0a410593          	addi	a1,sp,164
   15058:	000c0513          	mv	a0,s8
   1505c:	b39fe0ef          	jal	ra,13b94 <ecmp>
   15060:	02a04863          	bgtz	a0,15090 <_ldtoa_r+0x5c0>
   15064:	0a410613          	addi	a2,sp,164
   15068:	00060593          	mv	a1,a2
   1506c:	15010693          	addi	a3,sp,336
   15070:	000c0513          	mv	a0,s8
   15074:	f10ff0ef          	jal	ra,14784 <ediv>
   15078:	08810613          	addi	a2,sp,136
   1507c:	15010693          	addi	a3,sp,336
   15080:	00060593          	mv	a1,a2
   15084:	000c0513          	mv	a0,s8
   15088:	c4cff0ef          	jal	ra,144d4 <emul>
   1508c:	01a40433          	add	s0,s0,s10
   15090:	01448493          	addi	s1,s1,20
   15094:	001d5d13          	srli	s10,s10,0x1
   15098:	fbb490e3          	bne	s1,s11,15038 <_ldtoa_r+0x568>
   1509c:	c69ff06f          	j	14d04 <_ldtoa_r+0x234>
   150a0:	00048513          	mv	a0,s1
   150a4:	0c010593          	addi	a1,sp,192
   150a8:	eccfe0ef          	jal	ra,13774 <emov>
   150ac:	0c010513          	addi	a0,sp,192
   150b0:	9a9fe0ef          	jal	ra,13a58 <eisnan>
   150b4:	ee0514e3          	bnez	a0,14f9c <_ldtoa_r+0x4cc>
   150b8:	0d215783          	lhu	a5,210(sp)
   150bc:	ffff8737          	lui	a4,0xffff8
   150c0:	00e7c7b3          	xor	a5,a5,a4
   150c4:	0cf11923          	sh	a5,210(sp)
   150c8:	ed5ff06f          	j	14f9c <_ldtoa_r+0x4cc>
   150cc:	e80512e3          	bnez	a0,14f50 <_ldtoa_r+0x480>
   150d0:	0dc10593          	addi	a1,sp,220
   150d4:	00048513          	mv	a0,s1
   150d8:	9edfe0ef          	jal	ra,13ac4 <emovi>
   150dc:	0f810593          	addi	a1,sp,248
   150e0:	0c010513          	addi	a0,sp,192
   150e4:	9e1fe0ef          	jal	ra,13ac4 <emovi>
   150e8:	0dc15703          	lhu	a4,220(sp)
   150ec:	0fa15d83          	lhu	s11,250(sp)
   150f0:	0de15783          	lhu	a5,222(sp)
   150f4:	fff74713          	not	a4,a4
   150f8:	01071713          	slli	a4,a4,0x10
   150fc:	01075713          	srli	a4,a4,0x10
   15100:	0ce11e23          	sh	a4,220(sp)
   15104:	41b787b3          	sub	a5,a5,s11
   15108:	08f05863          	blez	a5,15198 <_ldtoa_r+0x6c8>
   1510c:	11410593          	addi	a1,sp,276
   15110:	0f810513          	addi	a0,sp,248
   15114:	00f12e23          	sw	a5,28(sp)
   15118:	e8cfe0ef          	jal	ra,137a4 <emovz>
   1511c:	0f810593          	addi	a1,sp,248
   15120:	0dc10513          	addi	a0,sp,220
   15124:	e80fe0ef          	jal	ra,137a4 <emovz>
   15128:	0dc10593          	addi	a1,sp,220
   1512c:	11410513          	addi	a0,sp,276
   15130:	e74fe0ef          	jal	ra,137a4 <emovz>
   15134:	01c12783          	lw	a5,28(sp)
   15138:	0fa15d83          	lhu	s11,250(sp)
   1513c:	40f007b3          	neg	a5,a5
   15140:	f6f00713          	li	a4,-145
   15144:	08e7ce63          	blt	a5,a4,151e0 <_ldtoa_r+0x710>
   15148:	00078593          	mv	a1,a5
   1514c:	0dc10513          	addi	a0,sp,220
   15150:	ba9fe0ef          	jal	ra,13cf8 <eshift.part.3>
   15154:	00050813          	mv	a6,a0
   15158:	0dc15703          	lhu	a4,220(sp)
   1515c:	0f815783          	lhu	a5,248(sp)
   15160:	01012e23          	sw	a6,28(sp)
   15164:	0f810593          	addi	a1,sp,248
   15168:	0dc10513          	addi	a0,sp,220
   1516c:	0ef71463          	bne	a4,a5,15254 <_ldtoa_r+0x784>
   15170:	fdcfe0ef          	jal	ra,1394c <eaddm>
   15174:	01c12803          	lw	a6,28(sp)
   15178:	15010793          	addi	a5,sp,336
   1517c:	04000713          	li	a4,64
   15180:	000d8693          	mv	a3,s11
   15184:	000c0613          	mv	a2,s8
   15188:	00080593          	mv	a1,a6
   1518c:	0f810513          	addi	a0,sp,248
   15190:	f39fe0ef          	jal	ra,140c8 <emdnorm>
   15194:	04c0006f          	j	151e0 <_ldtoa_r+0x710>
   15198:	fa0794e3          	bnez	a5,15140 <_ldtoa_r+0x670>
   1519c:	0f810593          	addi	a1,sp,248
   151a0:	0dc10513          	addi	a0,sp,220
   151a4:	00e12e23          	sw	a4,28(sp)
   151a8:	e20fe0ef          	jal	ra,137c8 <ecmpm>
   151ac:	06051a63          	bnez	a0,15220 <_ldtoa_r+0x750>
   151b0:	0f815783          	lhu	a5,248(sp)
   151b4:	01c12703          	lw	a4,28(sp)
   151b8:	00e78863          	beq	a5,a4,151c8 <_ldtoa_r+0x6f8>
   151bc:	0c010513          	addi	a0,sp,192
   151c0:	da0fe0ef          	jal	ra,13760 <eclear>
   151c4:	dd9ff06f          	j	14f9c <_ldtoa_r+0x4cc>
   151c8:	020d9463          	bnez	s11,151f0 <_ldtoa_r+0x720>
   151cc:	0fe11703          	lh	a4,254(sp)
   151d0:	00000793          	li	a5,0
   151d4:	02074063          	bltz	a4,151f4 <_ldtoa_r+0x724>
   151d8:	0f810513          	addi	a0,sp,248
   151dc:	e78fe0ef          	jal	ra,13854 <eshup1>
   151e0:	0c010593          	addi	a1,sp,192
   151e4:	0f810513          	addi	a0,sp,248
   151e8:	d69fe0ef          	jal	ra,13f50 <emovo.isra.6>
   151ec:	db1ff06f          	j	14f9c <_ldtoa_r+0x4cc>
   151f0:	00000793          	li	a5,0
   151f4:	01600713          	li	a4,22
   151f8:	0f810693          	addi	a3,sp,248
   151fc:	00f68633          	add	a2,a3,a5
   15200:	00265603          	lhu	a2,2(a2)
   15204:	00060863          	beqz	a2,15214 <_ldtoa_r+0x744>
   15208:	001d8d93          	addi	s11,s11,1
   1520c:	0fb11d23          	sh	s11,250(sp)
   15210:	fd1ff06f          	j	151e0 <_ldtoa_r+0x710>
   15214:	00278793          	addi	a5,a5,2
   15218:	fee790e3          	bne	a5,a4,151f8 <_ldtoa_r+0x728>
   1521c:	ff1ff06f          	j	1520c <_ldtoa_r+0x73c>
   15220:	00000813          	li	a6,0
   15224:	f2a05ae3          	blez	a0,15158 <_ldtoa_r+0x688>
   15228:	11410593          	addi	a1,sp,276
   1522c:	0f810513          	addi	a0,sp,248
   15230:	d74fe0ef          	jal	ra,137a4 <emovz>
   15234:	0f810593          	addi	a1,sp,248
   15238:	0dc10513          	addi	a0,sp,220
   1523c:	d68fe0ef          	jal	ra,137a4 <emovz>
   15240:	0dc10593          	addi	a1,sp,220
   15244:	11410513          	addi	a0,sp,276
   15248:	d5cfe0ef          	jal	ra,137a4 <emovz>
   1524c:	000c0813          	mv	a6,s8
   15250:	f09ff06f          	j	15158 <_ldtoa_r+0x688>
   15254:	f30fe0ef          	jal	ra,13984 <esubm>
   15258:	00100c13          	li	s8,1
   1525c:	f19ff06f          	j	15174 <_ldtoa_r+0x6a4>
   15260:	00278793          	addi	a5,a5,2
   15264:	01200713          	li	a4,18
   15268:	c2e79ae3          	bne	a5,a4,14e9c <_ldtoa_r+0x3cc>
   1526c:	d31ff06f          	j	14f9c <_ldtoa_r+0x4cc>
   15270:	07e15783          	lhu	a5,126(sp)
   15274:	11898c13          	addi	s8,s3,280
   15278:	0a078863          	beqz	a5,15328 <_ldtoa_r+0x858>
   1527c:	0c010593          	addi	a1,sp,192
   15280:	06c10513          	addi	a0,sp,108
   15284:	00004c37          	lui	s8,0x4
   15288:	83dfe0ef          	jal	ra,13ac4 <emovi>
   1528c:	ffec0c13          	addi	s8,s8,-2 # 3ffe <_start-0xc076>
   15290:	fd500d13          	li	s10,-43
   15294:	0d815783          	lhu	a5,216(sp)
   15298:	0077f793          	andi	a5,a5,7
   1529c:	06079263          	bnez	a5,15300 <_ldtoa_r+0x830>
   152a0:	0a410593          	addi	a1,sp,164
   152a4:	0c010513          	addi	a0,sp,192
   152a8:	cfcfe0ef          	jal	ra,137a4 <emovz>
   152ac:	0a410513          	addi	a0,sp,164
   152b0:	d54fe0ef          	jal	ra,13804 <eshdn1>
   152b4:	0a410513          	addi	a0,sp,164
   152b8:	d4cfe0ef          	jal	ra,13804 <eshdn1>
   152bc:	0a410593          	addi	a1,sp,164
   152c0:	0c010513          	addi	a0,sp,192
   152c4:	e88fe0ef          	jal	ra,1394c <eaddm>
   152c8:	0a615783          	lhu	a5,166(sp)
   152cc:	00378793          	addi	a5,a5,3
   152d0:	0af11323          	sh	a5,166(sp)
   152d4:	0a815783          	lhu	a5,168(sp)
   152d8:	10079a63          	bnez	a5,153ec <_ldtoa_r+0x91c>
   152dc:	0bc15783          	lhu	a5,188(sp)
   152e0:	02079063          	bnez	a5,15300 <_ldtoa_r+0x830>
   152e4:	0a615783          	lhu	a5,166(sp)
   152e8:	00fc6c63          	bltu	s8,a5,15300 <_ldtoa_r+0x830>
   152ec:	0c010593          	addi	a1,sp,192
   152f0:	0a410513          	addi	a0,sp,164
   152f4:	fff40413          	addi	s0,s0,-1
   152f8:	cacfe0ef          	jal	ra,137a4 <emovz>
   152fc:	f9a41ce3          	bne	s0,s10,15294 <_ldtoa_r+0x7c4>
   15300:	06c10593          	addi	a1,sp,108
   15304:	0c010513          	addi	a0,sp,192
   15308:	c49fe0ef          	jal	ra,13f50 <emovo.isra.6>
   1530c:	0240006f          	j	15330 <_ldtoa_r+0x860>
   15310:	06c10613          	addi	a2,sp,108
   15314:	15010693          	addi	a3,sp,336
   15318:	00060593          	mv	a1,a2
   1531c:	000c0513          	mv	a0,s8
   15320:	9b4ff0ef          	jal	ra,144d4 <emul>
   15324:	fff40413          	addi	s0,s0,-1
   15328:	07c11783          	lh	a5,124(sp)
   1532c:	fe07d2e3          	bgez	a5,15310 <_ldtoa_r+0x840>
   15330:	0c010593          	addi	a1,sp,192
   15334:	06c10513          	addi	a0,sp,108
   15338:	c3cfe0ef          	jal	ra,13774 <emov>
   1533c:	08810593          	addi	a1,sp,136
   15340:	00048513          	mv	a0,s1
   15344:	c30fe0ef          	jal	ra,13774 <emov>
   15348:	15098793          	addi	a5,s3,336
   1534c:	00000d13          	li	s10,0
   15350:	fffffc37          	lui	s8,0xfffff
   15354:	00f12423          	sw	a5,8(sp)
   15358:	00200d93          	li	s11,2
   1535c:	000217b7          	lui	a5,0x21
   15360:	aac78793          	addi	a5,a5,-1364 # 20aac <etens>
   15364:	01a789b3          	add	s3,a5,s10
   15368:	00812783          	lw	a5,8(sp)
   1536c:	0c010593          	addi	a1,sp,192
   15370:	00048513          	mv	a0,s1
   15374:	01a78733          	add	a4,a5,s10
   15378:	00e12a23          	sw	a4,20(sp)
   1537c:	819fe0ef          	jal	ra,13b94 <ecmp>
   15380:	01412703          	lw	a4,20(sp)
   15384:	04a05863          	blez	a0,153d4 <_ldtoa_r+0x904>
   15388:	0c010593          	addi	a1,sp,192
   1538c:	00070513          	mv	a0,a4
   15390:	805fe0ef          	jal	ra,13b94 <ecmp>
   15394:	02054863          	bltz	a0,153c4 <_ldtoa_r+0x8f4>
   15398:	0c010613          	addi	a2,sp,192
   1539c:	00060593          	mv	a1,a2
   153a0:	15010693          	addi	a3,sp,336
   153a4:	00098513          	mv	a0,s3
   153a8:	92cff0ef          	jal	ra,144d4 <emul>
   153ac:	08810613          	addi	a2,sp,136
   153b0:	15010693          	addi	a3,sp,336
   153b4:	00060593          	mv	a1,a2
   153b8:	00098513          	mv	a0,s3
   153bc:	918ff0ef          	jal	ra,144d4 <emul>
   153c0:	01840433          	add	s0,s0,s8
   153c4:	014d0d13          	addi	s10,s10,20 # 1014 <_start-0xf060>
   153c8:	10400793          	li	a5,260
   153cc:	03bc4c33          	div	s8,s8,s11
   153d0:	f8fd16e3          	bne	s10,a5,1535c <_ldtoa_r+0x88c>
   153d4:	08810613          	addi	a2,sp,136
   153d8:	15010693          	addi	a3,sp,336
   153dc:	00048593          	mv	a1,s1
   153e0:	00060513          	mv	a0,a2
   153e4:	ba0ff0ef          	jal	ra,14784 <ediv>
   153e8:	91dff06f          	j	14d04 <_ldtoa_r+0x234>
   153ec:	0a410513          	addi	a0,sp,164
   153f0:	c14fe0ef          	jal	ra,13804 <eshdn1>
   153f4:	0a615783          	lhu	a5,166(sp)
   153f8:	00178793          	addi	a5,a5,1
   153fc:	ed5ff06f          	j	152d0 <_ldtoa_r+0x800>
   15400:	06c10513          	addi	a0,sp,108
   15404:	c50fe0ef          	jal	ra,13854 <eshup1>
   15408:	0a410593          	addi	a1,sp,164
   1540c:	06c10513          	addi	a0,sp,108
   15410:	b94fe0ef          	jal	ra,137a4 <emovz>
   15414:	0a410513          	addi	a0,sp,164
   15418:	c3cfe0ef          	jal	ra,13854 <eshup1>
   1541c:	0a410513          	addi	a0,sp,164
   15420:	c34fe0ef          	jal	ra,13854 <eshup1>
   15424:	06c10593          	addi	a1,sp,108
   15428:	0a410513          	addi	a0,sp,164
   1542c:	d20fe0ef          	jal	ra,1394c <eaddm>
   15430:	15010613          	addi	a2,sp,336
   15434:	06c10593          	addi	a1,sp,108
   15438:	08810513          	addi	a0,sp,136
   1543c:	fb5fe0ef          	jal	ra,143f0 <eiremain>
   15440:	fff40413          	addi	s0,s0,-1
   15444:	19c15483          	lhu	s1,412(sp)
   15448:	901ff06f          	j	14d48 <_ldtoa_r+0x278>
   1544c:	02000793          	li	a5,32
   15450:	919ff06f          	j	14d68 <_ldtoa_r+0x298>
   15454:	03048493          	addi	s1,s1,48
   15458:	02e00793          	li	a5,46
   1545c:	10910aa3          	sb	s1,277(sp)
   15460:	10f10b23          	sb	a5,278(sp)
   15464:	11710c13          	addi	s8,sp,279
   15468:	000c0493          	mv	s1,s8
   1546c:	418487b3          	sub	a5,s1,s8
   15470:	04f9d663          	ble	a5,s3,154bc <_ldtoa_r+0x9ec>
   15474:	19c15783          	lhu	a5,412(sp)
   15478:	00400713          	li	a4,4
   1547c:	fff48c13          	addi	s8,s1,-1
   15480:	92f75ee3          	ble	a5,a4,14dbc <_ldtoa_r+0x2ec>
   15484:	00500713          	li	a4,5
   15488:	08e78463          	beq	a5,a4,15510 <_ldtoa_r+0xa40>
   1548c:	000c0793          	mv	a5,s8
   15490:	02e00613          	li	a2,46
   15494:	03800593          	li	a1,56
   15498:	03000693          	li	a3,48
   1549c:	fff78793          	addi	a5,a5,-1
   154a0:	0007c703          	lbu	a4,0(a5)
   154a4:	07f77713          	andi	a4,a4,127
   154a8:	0a09d663          	bgez	s3,15554 <_ldtoa_r+0xa84>
   154ac:	03100713          	li	a4,49
   154b0:	00e78023          	sb	a4,0(a5)
   154b4:	00140413          	addi	s0,s0,1
   154b8:	905ff06f          	j	14dbc <_ldtoa_r+0x2ec>
   154bc:	06c10513          	addi	a0,sp,108
   154c0:	b94fe0ef          	jal	ra,13854 <eshup1>
   154c4:	0a410593          	addi	a1,sp,164
   154c8:	06c10513          	addi	a0,sp,108
   154cc:	ad8fe0ef          	jal	ra,137a4 <emovz>
   154d0:	0a410513          	addi	a0,sp,164
   154d4:	b80fe0ef          	jal	ra,13854 <eshup1>
   154d8:	0a410513          	addi	a0,sp,164
   154dc:	b78fe0ef          	jal	ra,13854 <eshup1>
   154e0:	06c10593          	addi	a1,sp,108
   154e4:	0a410513          	addi	a0,sp,164
   154e8:	c64fe0ef          	jal	ra,1394c <eaddm>
   154ec:	15010613          	addi	a2,sp,336
   154f0:	06c10593          	addi	a1,sp,108
   154f4:	08810513          	addi	a0,sp,136
   154f8:	ef9fe0ef          	jal	ra,143f0 <eiremain>
   154fc:	19c14783          	lbu	a5,412(sp)
   15500:	00148493          	addi	s1,s1,1
   15504:	03078793          	addi	a5,a5,48
   15508:	fef48fa3          	sb	a5,-1(s1)
   1550c:	f61ff06f          	j	1546c <_ldtoa_r+0x99c>
   15510:	08810593          	addi	a1,sp,136
   15514:	06c10513          	addi	a0,sp,108
   15518:	a39fe0ef          	jal	ra,13f50 <emovo.isra.6>
